
build/kernel.elf:     file format elf32-littlearm


Disassembly of section .init:

00008000 <_start>:
    8000:	e3a0d902 	mov	sp, #32768	; 0x8000
    8004:	eaffffff 	b	8008 <kernel_main>

Disassembly of section .text:

00008008 <kernel_main>:
    8008:	e92d4800 	push	{fp, lr}
    800c:	e28db004 	add	fp, sp, #4
    8010:	eb0000d7 	bl	8374 <init_display>
    8014:	eafffffe 	b	8014 <kernel_main+0xc>

00008018 <wait>:
    8018:	e52db004 	push	{fp}		; (str fp, [sp, #-4]!)
    801c:	e28db000 	add	fp, sp, #0
    8020:	e24dd00c 	sub	sp, sp, #12
    8024:	e50b0008 	str	r0, [fp, #-8]
    8028:	ea000002 	b	8038 <wait+0x20>
    802c:	e51b3008 	ldr	r3, [fp, #-8]
    8030:	e2433001 	sub	r3, r3, #1
    8034:	e50b3008 	str	r3, [fp, #-8]
    8038:	e51b3008 	ldr	r3, [fp, #-8]
    803c:	e3530000 	cmp	r3, #0
    8040:	1afffff9 	bne	802c <wait+0x14>
    8044:	e320f000 	nop	{0}
    8048:	e28bd000 	add	sp, fp, #0
    804c:	e49db004 	pop	{fp}		; (ldr fp, [sp], #4)
    8050:	e12fff1e 	bx	lr

00008054 <_reset_>:
    8054:	e52db004 	push	{fp}		; (str fp, [sp, #-4]!)
    8058:	e28db000 	add	fp, sp, #0
    805c:	e320f000 	nop	{0}
    8060:	e28bd000 	add	sp, fp, #0
    8064:	e49db004 	pop	{fp}		; (ldr fp, [sp], #4)
    8068:	e12fff1e 	bx	lr

0000806c <undefined_instruction_vector>:
    806c:	e52db004 	push	{fp}		; (str fp, [sp, #-4]!)
    8070:	e28db000 	add	fp, sp, #0
    8074:	e320f000 	nop	{0}
    8078:	e28bd000 	add	sp, fp, #0
    807c:	e49db004 	pop	{fp}		; (ldr fp, [sp], #4)
    8080:	e1b0f00e 	movs	pc, lr

00008084 <software_interrupt_vector>:
    8084:	e52db004 	push	{fp}		; (str fp, [sp, #-4]!)
    8088:	e28db000 	add	fp, sp, #0
    808c:	e320f000 	nop	{0}
    8090:	e28bd000 	add	sp, fp, #0
    8094:	e49db004 	pop	{fp}		; (ldr fp, [sp], #4)
    8098:	e1b0f00e 	movs	pc, lr

0000809c <prefetch_abort_vector>:
    809c:	e52db004 	push	{fp}		; (str fp, [sp, #-4]!)
    80a0:	e28db000 	add	fp, sp, #0
    80a4:	e320f000 	nop	{0}
    80a8:	e28bd000 	add	sp, fp, #0
    80ac:	e49db004 	pop	{fp}		; (ldr fp, [sp], #4)
    80b0:	e25ef004 	subs	pc, lr, #4

000080b4 <interrupt_vector>:
    80b4:	e52db004 	push	{fp}		; (str fp, [sp, #-4]!)
    80b8:	e28db000 	add	fp, sp, #0
    80bc:	e320f000 	nop	{0}
    80c0:	e28bd000 	add	sp, fp, #0
    80c4:	e49db004 	pop	{fp}		; (ldr fp, [sp], #4)
    80c8:	e25ef004 	subs	pc, lr, #4

000080cc <fast_interrupt_vector>:
    80cc:	e52db004 	push	{fp}		; (str fp, [sp, #-4]!)
    80d0:	e28db000 	add	fp, sp, #0
    80d4:	e320f000 	nop	{0}
    80d8:	e28bd000 	add	sp, fp, #0
    80dc:	e49db004 	pop	{fp}		; (ldr fp, [sp], #4)
    80e0:	e12fff1e 	bx	lr

000080e4 <_Z16write_to_mailboxm7Channel>:
    80e4:	e52db004 	push	{fp}		; (str fp, [sp, #-4]!)
    80e8:	e28db000 	add	fp, sp, #0
    80ec:	e24dd014 	sub	sp, sp, #20
    80f0:	e50b0010 	str	r0, [fp, #-16]
    80f4:	e1a03001 	mov	r3, r1
    80f8:	e54b3011 	strb	r3, [fp, #-17]	; 0xffffffef
    80fc:	e30b3898 	movw	r3, #47256	; 0xb898
    8100:	e3433f00 	movt	r3, #16128	; 0x3f00
    8104:	e5933000 	ldr	r3, [r3]
    8108:	e50b3008 	str	r3, [fp, #-8]
    810c:	e51b3008 	ldr	r3, [fp, #-8]
    8110:	e3530000 	cmp	r3, #0
    8114:	aa000000 	bge	811c <_Z16write_to_mailboxm7Channel+0x38>
    8118:	eafffff7 	b	80fc <_Z16write_to_mailboxm7Channel+0x18>
    811c:	e30b38a0 	movw	r3, #47264	; 0xb8a0
    8120:	e3433f00 	movt	r3, #16128	; 0x3f00
    8124:	e51b2010 	ldr	r2, [fp, #-16]
    8128:	e3c2200f 	bic	r2, r2, #15
    812c:	e55b1011 	ldrb	r1, [fp, #-17]	; 0xffffffef
    8130:	e1822001 	orr	r2, r2, r1
    8134:	e5832000 	str	r2, [r3]
    8138:	e320f000 	nop	{0}
    813c:	e28bd000 	add	sp, fp, #0
    8140:	e49db004 	pop	{fp}		; (ldr fp, [sp], #4)
    8144:	e12fff1e 	bx	lr

00008148 <read_from_mailbox>:
    8148:	e52db004 	push	{fp}		; (str fp, [sp, #-4]!)
    814c:	e28db000 	add	fp, sp, #0
    8150:	e24dd014 	sub	sp, sp, #20
    8154:	e1a03000 	mov	r3, r0
    8158:	e54b300d 	strb	r3, [fp, #-13]
    815c:	e30b3898 	movw	r3, #47256	; 0xb898
    8160:	e3433f00 	movt	r3, #16128	; 0x3f00
    8164:	e5933000 	ldr	r3, [r3]
    8168:	e50b3008 	str	r3, [fp, #-8]
    816c:	e51b3008 	ldr	r3, [fp, #-8]
    8170:	e2033101 	and	r3, r3, #1073741824	; 0x40000000
    8174:	e3530000 	cmp	r3, #0
    8178:	0a000000 	beq	8180 <read_from_mailbox+0x38>
    817c:	eafffff6 	b	815c <read_from_mailbox+0x14>
    8180:	e30b3880 	movw	r3, #47232	; 0xb880
    8184:	e3433f00 	movt	r3, #16128	; 0x3f00
    8188:	e5933000 	ldr	r3, [r3]
    818c:	e50b300c 	str	r3, [fp, #-12]
    8190:	e51b300c 	ldr	r3, [fp, #-12]
    8194:	e203200f 	and	r2, r3, #15
    8198:	e55b300d 	ldrb	r3, [fp, #-13]
    819c:	e1520003 	cmp	r2, r3
    81a0:	0a000000 	beq	81a8 <read_from_mailbox+0x60>
    81a4:	eafffff5 	b	8180 <read_from_mailbox+0x38>
    81a8:	e51b300c 	ldr	r3, [fp, #-12]
    81ac:	e3c3300f 	bic	r3, r3, #15
    81b0:	e1a00003 	mov	r0, r3
    81b4:	e28bd000 	add	sp, fp, #0
    81b8:	e49db004 	pop	{fp}		; (ldr fp, [sp], #4)
    81bc:	e12fff1e 	bx	lr

000081c0 <set_LED>:
    81c0:	e92d4800 	push	{fp, lr}
    81c4:	e28db004 	add	fp, sp, #4
    81c8:	e24dd008 	sub	sp, sp, #8
    81cc:	e50b0008 	str	r0, [fp, #-8]
    81d0:	e51b2008 	ldr	r2, [fp, #-8]
    81d4:	e3083900 	movw	r3, #35072	; 0x8900
    81d8:	e3403000 	movt	r3, #0
    81dc:	e5832018 	str	r2, [r3, #24]
    81e0:	e3083900 	movw	r3, #35072	; 0x8900
    81e4:	e3403000 	movt	r3, #0
    81e8:	e3a02000 	mov	r2, #0
    81ec:	e5832004 	str	r2, [r3, #4]
    81f0:	e3083900 	movw	r3, #35072	; 0x8900
    81f4:	e3403000 	movt	r3, #0
    81f8:	e3a02000 	mov	r2, #0
    81fc:	e5832010 	str	r2, [r3, #16]
    8200:	e3083900 	movw	r3, #35072	; 0x8900
    8204:	e3403000 	movt	r3, #0
    8208:	e3a02082 	mov	r2, #130	; 0x82
    820c:	e5832014 	str	r2, [r3, #20]
    8210:	e3083900 	movw	r3, #35072	; 0x8900
    8214:	e3403000 	movt	r3, #0
    8218:	e3a02000 	mov	r2, #0
    821c:	e583201c 	str	r2, [r3, #28]
    8220:	e3083900 	movw	r3, #35072	; 0x8900
    8224:	e3403000 	movt	r3, #0
    8228:	e3a01008 	mov	r1, #8
    822c:	e1a00003 	mov	r0, r3
    8230:	ebffffab 	bl	80e4 <_Z16write_to_mailboxm7Channel>
    8234:	e3a00008 	mov	r0, #8
    8238:	ebffffc2 	bl	8148 <read_from_mailbox>
    823c:	e320f000 	nop	{0}
    8240:	e24bd004 	sub	sp, fp, #4
    8244:	e8bd8800 	pop	{fp, pc}

00008248 <_Z4waitm>:
    8248:	e52db004 	push	{fp}		; (str fp, [sp, #-4]!)
    824c:	e28db000 	add	fp, sp, #0
    8250:	e24dd00c 	sub	sp, sp, #12
    8254:	e50b0008 	str	r0, [fp, #-8]
    8258:	e51b3008 	ldr	r3, [fp, #-8]
    825c:	e3530000 	cmp	r3, #0
    8260:	0a000003 	beq	8274 <_Z4waitm+0x2c>
    8264:	e51b3008 	ldr	r3, [fp, #-8]
    8268:	e2433001 	sub	r3, r3, #1
    826c:	e50b3008 	str	r3, [fp, #-8]
    8270:	eafffff8 	b	8258 <_Z4waitm+0x10>
    8274:	e320f000 	nop	{0}
    8278:	e28bd000 	add	sp, fp, #0
    827c:	e49db004 	pop	{fp}		; (ldr fp, [sp], #4)
    8280:	e12fff1e 	bx	lr

00008284 <_Z5blinkv>:
    8284:	e92d4800 	push	{fp, lr}
    8288:	e28db004 	add	fp, sp, #4
    828c:	e3a0080f 	mov	r0, #983040	; 0xf0000
    8290:	ebffffec 	bl	8248 <_Z4waitm>
    8294:	e3a00001 	mov	r0, #1
    8298:	ebffffc8 	bl	81c0 <set_LED>
    829c:	e3a0080f 	mov	r0, #983040	; 0xf0000
    82a0:	ebffffe8 	bl	8248 <_Z4waitm>
    82a4:	e3a00000 	mov	r0, #0
    82a8:	ebffffc4 	bl	81c0 <set_LED>
    82ac:	e320f000 	nop	{0}
    82b0:	e8bd8800 	pop	{fp, pc}

000082b4 <_Z8drawCharPKcmmPm>:
    82b4:	e52db004 	push	{fp}		; (str fp, [sp, #-4]!)
    82b8:	e28db000 	add	fp, sp, #0
    82bc:	e24dd024 	sub	sp, sp, #36	; 0x24
    82c0:	e50b0018 	str	r0, [fp, #-24]	; 0xffffffe8
    82c4:	e50b101c 	str	r1, [fp, #-28]	; 0xffffffe4
    82c8:	e50b2020 	str	r2, [fp, #-32]	; 0xffffffe0
    82cc:	e50b3024 	str	r3, [fp, #-36]	; 0xffffffdc
    82d0:	e3a03000 	mov	r3, #0
    82d4:	e50b3008 	str	r3, [fp, #-8]
    82d8:	e51b3008 	ldr	r3, [fp, #-8]
    82dc:	e3530007 	cmp	r3, #7
    82e0:	ca00001f 	bgt	8364 <_Z8drawCharPKcmmPm+0xb0>
    82e4:	e51b3008 	ldr	r3, [fp, #-8]
    82e8:	e51b2018 	ldr	r2, [fp, #-24]	; 0xffffffe8
    82ec:	e0823003 	add	r3, r2, r3
    82f0:	e5d33000 	ldrb	r3, [r3]
    82f4:	e50b300c 	str	r3, [fp, #-12]
    82f8:	e3a03000 	mov	r3, #0
    82fc:	e50b3010 	str	r3, [fp, #-16]
    8300:	e51b3010 	ldr	r3, [fp, #-16]
    8304:	e3530007 	cmp	r3, #7
    8308:	ca000011 	bgt	8354 <_Z8drawCharPKcmmPm+0xa0>
    830c:	e51b3008 	ldr	r3, [fp, #-8]
    8310:	e1a02183 	lsl	r2, r3, #3
    8314:	e51b3010 	ldr	r3, [fp, #-16]
    8318:	e0823003 	add	r3, r2, r3
    831c:	e1a03103 	lsl	r3, r3, #2
    8320:	e51b2024 	ldr	r2, [fp, #-36]	; 0xffffffdc
    8324:	e0823003 	add	r3, r2, r3
    8328:	e51b200c 	ldr	r2, [fp, #-12]
    832c:	e2022001 	and	r2, r2, #1
    8330:	e2622000 	rsb	r2, r2, #0
    8334:	e5832000 	str	r2, [r3]
    8338:	e51b300c 	ldr	r3, [fp, #-12]
    833c:	e1a030a3 	lsr	r3, r3, #1
    8340:	e50b300c 	str	r3, [fp, #-12]
    8344:	e51b3008 	ldr	r3, [fp, #-8]
    8348:	e2833001 	add	r3, r3, #1
    834c:	e50b3008 	str	r3, [fp, #-8]
    8350:	eaffffea 	b	8300 <_Z8drawCharPKcmmPm+0x4c>
    8354:	e51b3008 	ldr	r3, [fp, #-8]
    8358:	e2833001 	add	r3, r3, #1
    835c:	e50b3008 	str	r3, [fp, #-8]
    8360:	eaffffdc 	b	82d8 <_Z8drawCharPKcmmPm+0x24>
    8364:	e320f000 	nop	{0}
    8368:	e28bd000 	add	sp, fp, #0
    836c:	e49db004 	pop	{fp}		; (ldr fp, [sp], #4)
    8370:	e12fff1e 	bx	lr

00008374 <init_display>:
    8374:	e92d4800 	push	{fp, lr}
    8378:	e28db004 	add	fp, sp, #4
    837c:	e24dde11 	sub	sp, sp, #272	; 0x110
    8380:	e3083920 	movw	r3, #35104	; 0x8920
    8384:	e3403000 	movt	r3, #0
    8388:	e3833103 	orr	r3, r3, #-1073741824	; 0xc0000000
    838c:	e3a01008 	mov	r1, #8
    8390:	e1a00003 	mov	r0, r3
    8394:	ebffff52 	bl	80e4 <_Z16write_to_mailboxm7Channel>
    8398:	e3a00008 	mov	r0, #8
    839c:	ebffff69 	bl	8148 <read_from_mailbox>
    83a0:	e3083920 	movw	r3, #35104	; 0x8920
    83a4:	e3403000 	movt	r3, #0
    83a8:	e5933004 	ldr	r3, [r3, #4]
    83ac:	e3530106 	cmp	r3, #-2147483647	; 0x80000001
    83b0:	03a03001 	moveq	r3, #1
    83b4:	13a03000 	movne	r3, #0
    83b8:	e6ef3073 	uxtb	r3, r3
    83bc:	e3530000 	cmp	r3, #0
    83c0:	0a000000 	beq	83c8 <init_display+0x54>
    83c4:	eafffff5 	b	83a0 <init_display+0x2c>
    83c8:	e3a03000 	mov	r3, #0
    83cc:	e50b3008 	str	r3, [fp, #-8]
    83d0:	e3083920 	movw	r3, #35104	; 0x8920
    83d4:	e3403000 	movt	r3, #0
    83d8:	e5932050 	ldr	r2, [r3, #80]	; 0x50
    83dc:	e51b3008 	ldr	r3, [fp, #-8]
    83e0:	e1520003 	cmp	r2, r3
    83e4:	83a03001 	movhi	r3, #1
    83e8:	93a03000 	movls	r3, #0
    83ec:	e6ef3073 	uxtb	r3, r3
    83f0:	e3530000 	cmp	r3, #0
    83f4:	0a000011 	beq	8440 <init_display+0xcc>
    83f8:	e3083920 	movw	r3, #35104	; 0x8920
    83fc:	e3403000 	movt	r3, #0
    8400:	e593304c 	ldr	r3, [r3, #76]	; 0x4c
    8404:	e3c32103 	bic	r2, r3, #-1073741824	; 0xc0000000
    8408:	e51b3008 	ldr	r3, [fp, #-8]
    840c:	e0823003 	add	r3, r2, r3
    8410:	e1a02003 	mov	r2, r3
    8414:	e3a030ff 	mov	r3, #255	; 0xff
    8418:	e34f3f00 	movt	r3, #65280	; 0xff00
    841c:	e5823000 	str	r3, [r2]
    8420:	e3083920 	movw	r3, #35104	; 0x8920
    8424:	e3403000 	movt	r3, #0
    8428:	e593303c 	ldr	r3, [r3, #60]	; 0x3c
    842c:	e1a031a3 	lsr	r3, r3, #3
    8430:	e51b2008 	ldr	r2, [fp, #-8]
    8434:	e0823003 	add	r3, r2, r3
    8438:	e50b3008 	str	r3, [fp, #-8]
    843c:	eaffffe3 	b	83d0 <init_display+0x5c>
    8440:	e59f30ac 	ldr	r3, [pc, #172]	; 84f4 <init_display+0x180>
    8444:	e50b3014 	str	r3, [fp, #-20]	; 0xffffffec
    8448:	e24b3f45 	sub	r3, fp, #276	; 0x114
    844c:	e3a02000 	mov	r2, #0
    8450:	e3a01000 	mov	r1, #0
    8454:	e51b0014 	ldr	r0, [fp, #-20]	; 0xffffffec
    8458:	ebffff95 	bl	82b4 <_Z8drawCharPKcmmPm>
    845c:	e3a03000 	mov	r3, #0
    8460:	e50b300c 	str	r3, [fp, #-12]
    8464:	e51b300c 	ldr	r3, [fp, #-12]
    8468:	e3530007 	cmp	r3, #7
    846c:	ca00001d 	bgt	84e8 <init_display+0x174>
    8470:	e3a03000 	mov	r3, #0
    8474:	e50b3010 	str	r3, [fp, #-16]
    8478:	e51b3010 	ldr	r3, [fp, #-16]
    847c:	e3530007 	cmp	r3, #7
    8480:	ca000014 	bgt	84d8 <init_display+0x164>
    8484:	e3083920 	movw	r3, #35104	; 0x8920
    8488:	e3403000 	movt	r3, #0
    848c:	e593304c 	ldr	r3, [r3, #76]	; 0x4c
    8490:	e3c32103 	bic	r2, r3, #-1073741824	; 0xc0000000
    8494:	e3083920 	movw	r3, #35104	; 0x8920
    8498:	e3403000 	movt	r3, #0
    849c:	e593303c 	ldr	r3, [r3, #60]	; 0x3c
    84a0:	e1a031a3 	lsr	r3, r3, #3
    84a4:	e51b100c 	ldr	r1, [fp, #-12]
    84a8:	e0030391 	mul	r3, r1, r3
    84ac:	e1a03503 	lsl	r3, r3, #10
    84b0:	e0822003 	add	r2, r2, r3
    84b4:	e51b3010 	ldr	r3, [fp, #-16]
    84b8:	e0823003 	add	r3, r2, r3
    84bc:	e1a02003 	mov	r2, r3
    84c0:	e3e03000 	mvn	r3, #0
    84c4:	e5823000 	str	r3, [r2]
    84c8:	e51b3010 	ldr	r3, [fp, #-16]
    84cc:	e2833001 	add	r3, r3, #1
    84d0:	e50b3010 	str	r3, [fp, #-16]
    84d4:	eaffffe7 	b	8478 <init_display+0x104>
    84d8:	e51b300c 	ldr	r3, [fp, #-12]
    84dc:	e2833001 	add	r3, r3, #1
    84e0:	e50b300c 	str	r3, [fp, #-12]
    84e4:	eaffffde 	b	8464 <init_display+0xf0>
    84e8:	e320f000 	nop	{0}
    84ec:	e24bd004 	sub	sp, fp, #4
    84f0:	e8bd8800 	pop	{fp, pc}
    84f4:	00008640 	andeq	r8, r0, r0, asr #12

Disassembly of section .rodata:

000084f8 <basic_font>:
	...
    8600:	183c3c18 	ldmdane	ip!, {r3, r4, sl, fp, ip, sp}
    8604:	00180018 	andseq	r0, r8, r8, lsl r0
    8608:	00003636 	andeq	r3, r0, r6, lsr r6
    860c:	00000000 	andeq	r0, r0, r0
    8610:	367f3636 			; <UNDEFINED> instruction: 0x367f3636
    8614:	0036367f 	eorseq	r3, r6, pc, ror r6
    8618:	1e033e0c 	cdpne	14, 0, cr3, cr3, cr12, {0}
    861c:	000c1f30 	andeq	r1, ip, r0, lsr pc
    8620:	18336300 	ldmdane	r3!, {r8, r9, sp, lr}
    8624:	0063660c 	rsbeq	r6, r3, ip, lsl #12
    8628:	6e1c361c 	mrcvs	6, 0, r3, cr12, cr12, {0}
    862c:	006e333b 	rsbeq	r3, lr, fp, lsr r3
    8630:	00030606 	andeq	r0, r3, r6, lsl #12
    8634:	00000000 	andeq	r0, r0, r0
    8638:	06060c18 			; <UNDEFINED> instruction: 0x06060c18
    863c:	00180c06 	andseq	r0, r8, r6, lsl #24
    8640:	18180c06 	ldmdane	r8, {r1, r2, sl, fp}
    8644:	00060c18 	andeq	r0, r6, r8, lsl ip
    8648:	ff3c6600 			; <UNDEFINED> instruction: 0xff3c6600
    864c:	0000663c 	andeq	r6, r0, ip, lsr r6
    8650:	3f0c0c00 	svccc	0x000c0c00
    8654:	00000c0c 	andeq	r0, r0, ip, lsl #24
    8658:	00000000 	andeq	r0, r0, r0
    865c:	060c0c00 	streq	r0, [ip], -r0, lsl #24
    8660:	3f000000 	svccc	0x00000000
	...
    866c:	000c0c00 	andeq	r0, ip, r0, lsl #24
    8670:	0c183060 	ldceq	0, cr3, [r8], {96}	; 0x60
    8674:	00010306 	andeq	r0, r1, r6, lsl #6
    8678:	7b73633e 	blvc	1ce1378 <__bss_end__+0x1cd8a00>
    867c:	003e676f 	eorseq	r6, lr, pc, ror #14
    8680:	0c0c0e0c 	stceq	14, cr0, [ip], {12}
    8684:	003f0c0c 	eorseq	r0, pc, ip, lsl #24
    8688:	1c30331e 	ldcne	3, cr3, [r0], #-120	; 0xffffff88
    868c:	003f3306 	eorseq	r3, pc, r6, lsl #6
    8690:	1c30331e 	ldcne	3, cr3, [r0], #-120	; 0xffffff88
    8694:	001e3330 	andseq	r3, lr, r0, lsr r3
    8698:	33363c38 	teqcc	r6, #56, 24	; 0x3800
    869c:	0078307f 	rsbseq	r3, r8, pc, ror r0
    86a0:	301f033f 	andscc	r0, pc, pc, lsr r3	; <UNPREDICTABLE>
    86a4:	001e3330 	andseq	r3, lr, r0, lsr r3
    86a8:	1f03061c 	svcne	0x0003061c
    86ac:	001e3333 	andseq	r3, lr, r3, lsr r3
    86b0:	1830333f 	ldmdane	r0!, {r0, r1, r2, r3, r4, r5, r8, r9, ip, sp}
    86b4:	000c0c0c 	andeq	r0, ip, ip, lsl #24
    86b8:	1e33331e 	mrcne	3, 1, r3, cr3, cr14, {0}
    86bc:	001e3333 	andseq	r3, lr, r3, lsr r3
    86c0:	3e33331e 	mrccc	3, 1, r3, cr3, cr14, {0}
    86c4:	000e1830 	andeq	r1, lr, r0, lsr r8
    86c8:	000c0c00 	andeq	r0, ip, r0, lsl #24
    86cc:	000c0c00 	andeq	r0, ip, r0, lsl #24
    86d0:	000c0c00 	andeq	r0, ip, r0, lsl #24
    86d4:	060c0c00 	streq	r0, [ip], -r0, lsl #24
    86d8:	03060c18 	movweq	r0, #27672	; 0x6c18
    86dc:	00180c06 	andseq	r0, r8, r6, lsl #24
    86e0:	003f0000 	eorseq	r0, pc, r0
    86e4:	00003f00 	andeq	r3, r0, r0, lsl #30
    86e8:	30180c06 	andscc	r0, r8, r6, lsl #24
    86ec:	00060c18 	andeq	r0, r6, r8, lsl ip
    86f0:	1830331e 	ldmdane	r0!, {r1, r2, r3, r4, r8, r9, ip, sp}
    86f4:	000c000c 	andeq	r0, ip, ip
    86f8:	7b7b633e 	blvc	1ee13f8 <__bss_end__+0x1ed8a80>
    86fc:	001e037b 	andseq	r0, lr, fp, ror r3
    8700:	33331e0c 	teqcc	r3, #12, 28	; 0xc0
    8704:	0033333f 	eorseq	r3, r3, pc, lsr r3
    8708:	3e66663f 	mcrcc	6, 3, r6, cr6, cr15, {1}
    870c:	003f6666 	eorseq	r6, pc, r6, ror #12
    8710:	0303663c 	movweq	r6, #13884	; 0x363c
    8714:	003c6603 	eorseq	r6, ip, r3, lsl #12
    8718:	6666361f 			; <UNDEFINED> instruction: 0x6666361f
    871c:	001f3666 	andseq	r3, pc, r6, ror #12
    8720:	1e16467f 	mrcne	6, 0, r4, cr6, cr15, {3}
    8724:	007f4616 	rsbseq	r4, pc, r6, lsl r6	; <UNPREDICTABLE>
    8728:	1e16467f 	mrcne	6, 0, r4, cr6, cr15, {3}
    872c:	000f0616 	andeq	r0, pc, r6, lsl r6	; <UNPREDICTABLE>
    8730:	0303663c 	movweq	r6, #13884	; 0x363c
    8734:	007c6673 	rsbseq	r6, ip, r3, ror r6
    8738:	3f333333 	svccc	0x00333333
    873c:	00333333 	eorseq	r3, r3, r3, lsr r3
    8740:	0c0c0c1e 	stceq	12, cr0, [ip], {30}
    8744:	001e0c0c 	andseq	r0, lr, ip, lsl #24
    8748:	30303078 	eorscc	r3, r0, r8, ror r0
    874c:	001e3333 	andseq	r3, lr, r3, lsr r3
    8750:	1e366667 	cfmsuba32ne	mvax3, mvax6, mvfx6, mvfx7
    8754:	00676636 	rsbeq	r6, r7, r6, lsr r6
    8758:	0606060f 	streq	r0, [r6], -pc, lsl #12
    875c:	007f6646 	rsbseq	r6, pc, r6, asr #12
    8760:	7f7f7763 	svcvc	0x007f7763
    8764:	0063636b 	rsbeq	r6, r3, fp, ror #6
    8768:	7b6f6763 	blvc	1be24fc <__bss_end__+0x1bd9b84>
    876c:	00636373 	rsbeq	r6, r3, r3, ror r3
    8770:	6363361c 	cmnvs	r3, #28, 12	; 0x1c00000
    8774:	001c3663 	andseq	r3, ip, r3, ror #12
    8778:	3e66663f 	mcrcc	6, 3, r6, cr6, cr15, {1}
    877c:	000f0606 	andeq	r0, pc, r6, lsl #12
    8780:	3333331e 	teqcc	r3, #2013265920	; 0x78000000
    8784:	00381e3b 	eorseq	r1, r8, fp, lsr lr
    8788:	3e66663f 	mcrcc	6, 3, r6, cr6, cr15, {1}
    878c:	00676636 	rsbeq	r6, r7, r6, lsr r6
    8790:	0e07331e 	mcreq	3, 0, r3, cr7, cr14, {0}
    8794:	001e3338 	andseq	r3, lr, r8, lsr r3
    8798:	0c0c2d3f 	stceq	13, cr2, [ip], {63}	; 0x3f
    879c:	001e0c0c 	andseq	r0, lr, ip, lsl #24
    87a0:	33333333 	teqcc	r3, #-872415232	; 0xcc000000
    87a4:	003f3333 	eorseq	r3, pc, r3, lsr r3	; <UNPREDICTABLE>
    87a8:	33333333 	teqcc	r3, #-872415232	; 0xcc000000
    87ac:	000c1e33 	andeq	r1, ip, r3, lsr lr
    87b0:	6b636363 	blvs	18e1544 <__bss_end__+0x18d8bcc>
    87b4:	0063777f 	rsbeq	r7, r3, pc, ror r7
    87b8:	1c366363 	ldcne	3, cr6, [r6], #-396	; 0xfffffe74
    87bc:	0063361c 	rsbeq	r3, r3, ip, lsl r6
    87c0:	1e333333 	mrcne	3, 1, r3, cr3, cr3, {1}
    87c4:	001e0c0c 	andseq	r0, lr, ip, lsl #24
    87c8:	1831637f 	ldmdane	r1!, {r0, r1, r2, r3, r4, r5, r6, r8, r9, sp, lr}
    87cc:	007f664c 	rsbseq	r6, pc, ip, asr #12
    87d0:	0606061e 			; <UNDEFINED> instruction: 0x0606061e
    87d4:	001e0606 	andseq	r0, lr, r6, lsl #12
    87d8:	180c0603 	stmdane	ip, {r0, r1, r9, sl}
    87dc:	00406030 	subeq	r6, r0, r0, lsr r0
    87e0:	1818181e 	ldmdane	r8, {r1, r2, r3, r4, fp, ip}
    87e4:	001e1818 	andseq	r1, lr, r8, lsl r8
    87e8:	63361c08 	teqvs	r6, #8, 24	; 0x800
	...
    87f4:	ff000000 			; <UNDEFINED> instruction: 0xff000000
    87f8:	00180c0c 	andseq	r0, r8, ip, lsl #24
    87fc:	00000000 	andeq	r0, r0, r0
    8800:	301e0000 	andscc	r0, lr, r0
    8804:	006e333e 	rsbeq	r3, lr, lr, lsr r3
    8808:	3e060607 	cfmadd32cc	mvax0, mvfx0, mvfx6, mvfx7
    880c:	003b6666 	eorseq	r6, fp, r6, ror #12
    8810:	331e0000 	tstcc	lr, #0
    8814:	001e3303 	andseq	r3, lr, r3, lsl #6
    8818:	3e303038 	mrccc	0, 1, r3, cr0, cr8, {1}
    881c:	006e3333 	rsbeq	r3, lr, r3, lsr r3
    8820:	331e0000 	tstcc	lr, #0
    8824:	001e033f 	andseq	r0, lr, pc, lsr r3
    8828:	0f06361c 	svceq	0x0006361c
    882c:	000f0606 	andeq	r0, pc, r6, lsl #12
    8830:	336e0000 	cmncc	lr, #0
    8834:	1f303e33 	svcne	0x00303e33
    8838:	6e360607 	cfmsuba32vs	mvax0, mvax0, mvfx6, mvfx7
    883c:	00676666 	rsbeq	r6, r7, r6, ror #12
    8840:	0c0e000c 	stceq	0, cr0, [lr], {12}
    8844:	001e0c0c 	andseq	r0, lr, ip, lsl #24
    8848:	30300030 	eorscc	r0, r0, r0, lsr r0
    884c:	1e333330 	mrcne	3, 1, r3, cr3, cr0, {1}
    8850:	36660607 	strbtcc	r0, [r6], -r7, lsl #12
    8854:	0067361e 	rsbeq	r3, r7, lr, lsl r6
    8858:	0c0c0c0e 	stceq	12, cr0, [ip], {14}
    885c:	001e0c0c 	andseq	r0, lr, ip, lsl #24
    8860:	7f330000 	svcvc	0x00330000
    8864:	00636b7f 	rsbeq	r6, r3, pc, ror fp
    8868:	331f0000 	tstcc	pc, #0
    886c:	00333333 	eorseq	r3, r3, r3, lsr r3
    8870:	331e0000 	tstcc	lr, #0
    8874:	001e3333 	andseq	r3, lr, r3, lsr r3
    8878:	663b0000 	ldrtvs	r0, [fp], -r0
    887c:	0f063e66 	svceq	0x00063e66
    8880:	336e0000 	cmncc	lr, #0
    8884:	78303e33 	ldmdavc	r0!, {r0, r1, r4, r5, r9, sl, fp, ip, sp}
    8888:	6e3b0000 	cdpvs	0, 3, cr0, cr11, cr0, {0}
    888c:	000f0666 	andeq	r0, pc, r6, ror #12
    8890:	033e0000 	teqeq	lr, #0
    8894:	001f301e 	andseq	r3, pc, lr, lsl r0	; <UNPREDICTABLE>
    8898:	0c3e0c08 	ldceq	12, cr0, [lr], #-32	; 0xffffffe0
    889c:	00182c0c 	andseq	r2, r8, ip, lsl #24
    88a0:	33330000 	teqcc	r3, #0
    88a4:	006e3333 	rsbeq	r3, lr, r3, lsr r3
    88a8:	33330000 	teqcc	r3, #0
    88ac:	000c1e33 	andeq	r1, ip, r3, lsr lr
    88b0:	6b630000 	blvs	18c88b8 <__bss_end__+0x18bff40>
    88b4:	00367f7f 	eorseq	r7, r6, pc, ror pc
    88b8:	36630000 	strbtcc	r0, [r3], -r0
    88bc:	0063361c 	rsbeq	r3, r3, ip, lsl r6
    88c0:	33330000 	teqcc	r3, #0
    88c4:	1f303e33 	svcne	0x00303e33
    88c8:	193f0000 	ldmdbne	pc!, {}	; <UNPREDICTABLE>
    88cc:	003f260c 	eorseq	r2, pc, ip, lsl #12
    88d0:	070c0c38 	smladxeq	ip, r8, ip, r0
    88d4:	00380c0c 	eorseq	r0, r8, ip, lsl #24
    88d8:	00181818 	andseq	r1, r8, r8, lsl r8
    88dc:	00181818 	andseq	r1, r8, r8, lsl r8
    88e0:	380c0c07 	stmdacc	ip, {r0, r1, r2, sl, fp}
    88e4:	00070c0c 	andeq	r0, r7, ip, lsl #24
    88e8:	00003b6e 	andeq	r3, r0, lr, ror #22
	...

Disassembly of section .ARM.exidx:

000088f8 <.ARM.exidx>:
    88f8:	7ffff7ec 	svcvc	0x00fff7ec
    88fc:	00000001 	andeq	r0, r0, r1

Disassembly of section .data:

00008900 <led_message>:
    8900:	00000020 	andeq	r0, r0, r0, lsr #32
    8904:	00000000 	andeq	r0, r0, r0
    8908:	00038041 	andeq	r8, r3, r1, asr #32
    890c:	00000008 	andeq	r0, r0, r8
    8910:	00000000 	andeq	r0, r0, r0
    8914:	00000082 	andeq	r0, r0, r2, lsl #1
    8918:	00000001 	andeq	r0, r0, r1
    891c:	00000000 	andeq	r0, r0, r0

00008920 <t>:
    8920:	00000058 	andeq	r0, r0, r8, asr r0
    8924:	00000000 	andeq	r0, r0, r0
    8928:	00048003 	andeq	r8, r4, r3
    892c:	00000008 	andeq	r0, r0, r8
    8930:	00000008 	andeq	r0, r0, r8
    8934:	00000400 	andeq	r0, r0, r0, lsl #8
    8938:	00000300 	andeq	r0, r0, r0, lsl #6
    893c:	00048004 	andeq	r8, r4, r4
    8940:	00000008 	andeq	r0, r0, r8
    8944:	00000008 	andeq	r0, r0, r8
    8948:	00000400 	andeq	r0, r0, r0, lsl #8
    894c:	00000300 	andeq	r0, r0, r0, lsl #6
    8950:	00048005 	andeq	r8, r4, r5
    8954:	00000004 	andeq	r0, r0, r4
    8958:	00000004 	andeq	r0, r0, r4
    895c:	00000020 	andeq	r0, r0, r0, lsr #32
    8960:	00040001 	andeq	r0, r4, r1
    8964:	00000008 	andeq	r0, r0, r8
    8968:	00000004 	andeq	r0, r0, r4
    896c:	00000010 	andeq	r0, r0, r0, lsl r0
	...

Disassembly of section .comment:

00008978 <.comment>:
    8978:	3a434347 	bcc	10d969c <__bss_end__+0x10d0d24>
    897c:	4e472820 	cdpmi	8, 4, cr2, cr7, cr0, {1}
    8980:	6f542055 	svcvs	0x00542055
    8984:	20736c6f 	rsbscs	r6, r3, pc, ror #24
    8988:	20726f66 	rsbscs	r6, r2, r6, ror #30
    898c:	204d5241 	subcs	r5, sp, r1, asr #4
    8990:	65626d45 	strbvs	r6, [r2, #-3397]!	; 0xfffff2bb
    8994:	64656464 	strbtvs	r6, [r5], #-1124	; 0xfffffb9c
    8998:	6f725020 	svcvs	0x00725020
    899c:	73736563 	cmnvc	r3, #415236096	; 0x18c00000
    89a0:	2073726f 	rsbscs	r7, r3, pc, ror #4
    89a4:	30322d36 	eorscc	r2, r2, r6, lsr sp
    89a8:	712d3731 			; <UNDEFINED> instruction: 0x712d3731
    89ac:	70752d32 	rsbsvc	r2, r5, r2, lsr sp
    89b0:	65746164 	ldrbvs	r6, [r4, #-356]!	; 0xfffffe9c
    89b4:	2e362029 	cdpcs	0, 3, cr2, cr6, cr9, {1}
    89b8:	20312e33 	eorscs	r2, r1, r3, lsr lr
    89bc:	37313032 			; <UNDEFINED> instruction: 0x37313032
    89c0:	35313230 	ldrcc	r3, [r1, #-560]!	; 0xfffffdd0
    89c4:	65722820 	ldrbvs	r2, [r2, #-2080]!	; 0xfffff7e0
    89c8:	7361656c 	cmnvc	r1, #108, 10	; 0x1b000000
    89cc:	5b202965 	blpl	812f68 <__bss_end__+0x80a5f0>
    89d0:	2f4d5241 	svccs	0x004d5241
    89d4:	65626d65 	strbvs	r6, [r2, #-3429]!	; 0xfffff29b
    89d8:	64656464 	strbtvs	r6, [r5], #-1124	; 0xfffffb9c
    89dc:	622d362d 	eorvs	r3, sp, #47185920	; 0x2d00000
    89e0:	636e6172 	cmnvs	lr, #-2147483620	; 0x8000001c
    89e4:	65722068 	ldrbvs	r2, [r2, #-104]!	; 0xffffff98
    89e8:	69736976 	ldmdbvs	r3!, {r1, r2, r4, r5, r6, r8, fp, sp, lr}^
    89ec:	32206e6f 	eorcc	r6, r0, #1776	; 0x6f0
    89f0:	31353534 	teqcc	r5, r4, lsr r5
    89f4:	Address 0x00000000000089f4 is out of bounds.


Disassembly of section .ARM.attributes:

00008978 <.ARM.attributes>:
    8978:	00003b41 	andeq	r3, r0, r1, asr #22
    897c:	61656100 	cmnvs	r5, r0, lsl #2
    8980:	01006962 	tsteq	r0, r2, ror #18
    8984:	00000031 	andeq	r0, r0, r1, lsr r0
    8988:	726f4305 	rsbvc	r4, pc, #335544320	; 0x14000000
    898c:	2d786574 	cfldr64cs	mvdx6, [r8, #-464]!	; 0xfffffe30
    8990:	00333541 	eorseq	r3, r3, r1, asr #10
    8994:	41070e06 	tstmi	r7, r6, lsl #28
    8998:	02090108 	andeq	r0, r9, #8, 2
    899c:	0412050a 	ldreq	r0, [r2], #-1290	; 0xfffffaf6
    89a0:	01150114 	tsteq	r5, r4, lsl r1
    89a4:	01180317 	tsteq	r8, r7, lsl r3
    89a8:	011c011a 	tsteq	ip, sl, lsl r1
    89ac:	0122061e 			; <UNDEFINED> instruction: 0x0122061e
    89b0:	0344012a 	movteq	r0, #16682	; 0x412a
