
build/kernel.elf:     file format elf32-littlearm


Disassembly of section .vector_table:

00000000 <_v_table>:
   0:	ea002017 	b	8064 <_reset_>
   4:	ea00201c 	b	807c <undefined_instruction_vector>
   8:	ea00201c 	b	8080 <software_interrupt_vector>
   c:	ea00201c 	b	8084 <prefetch_abort_vector>
  10:	ea002013 	b	8064 <_reset_>
  14:	ea002012 	b	8064 <_reset_>
  18:	ea00201a 	b	8088 <interrupt_vector>
  1c:	ea00201a 	b	808c <fast_interrupt_vector>

Disassembly of section .init:

00008000 <_start>:
    8000:	e3a0d902 	mov	sp, #32768	; 0x8000
    8004:	ee110f51 	mrc	15, 0, r0, cr1, cr1, {2}
    8008:	e3500b03 	cmp	r0, #3072	; 0xc00
    800c:	0a000001 	beq	8018 <.free_to_enable_fpu>
    8010:	e3800b03 	orr	r0, r0, #3072	; 0xc00
    8014:	ee010f51 	mcr	15, 0, r0, cr1, cr1, {2}

00008018 <.free_to_enable_fpu>:
    8018:	ee110f50 	mrc	15, 0, r0, cr1, cr0, {2}
    801c:	e380060f 	orr	r0, r0, #15728640	; 0xf00000
    8020:	ee010f50 	mcr	15, 0, r0, cr1, cr0, {2}
    8024:	e3a00101 	mov	r0, #1073741824	; 0x40000000
    8028:	eee80a10 	vmsr	fpexc, r0
    802c:	ee110f10 	mrc	15, 0, r0, cr1, cr0, {0}
    8030:	e3800b02 	orr	r0, r0, #2048	; 0x800
    8034:	e3800004 	orr	r0, r0, #4
    8038:	e3800a01 	orr	r0, r0, #4096	; 0x1000
    803c:	ee010f10 	mcr	15, 0, r0, cr1, cr0, {0}
    8040:	ea000013 	b	8094 <_cstartup>

Disassembly of section .text:

00008044 <b_table>:
    8044:	ea000006 	b	8064 <_reset_>
    8048:	ea00000b 	b	807c <undefined_instruction_vector>
    804c:	ea00000b 	b	8080 <software_interrupt_vector>
    8050:	ea00000b 	b	8084 <prefetch_abort_vector>
    8054:	ea000002 	b	8064 <_reset_>
    8058:	ea000001 	b	8064 <_reset_>
    805c:	ea000009 	b	8088 <interrupt_vector>
    8060:	ea000009 	b	808c <fast_interrupt_vector>

00008064 <_reset_>:
    8064:	e59f0024 	ldr	r0, [pc, #36]	; 8090 <fast_interrupt_vector+0x4>
    8068:	e3a01000 	mov	r1, #0
    806c:	e8b103fc 	ldm	r1!, {r2, r3, r4, r5, r6, r7, r8, r9}
    8070:	e8a003fc 	stmia	r0!, {r2, r3, r4, r5, r6, r7, r8, r9}
    8074:	eaffffe1 	b	8000 <_start>
    8078:	e12fff1e 	bx	lr

0000807c <undefined_instruction_vector>:
    807c:	e1b0f00e 	movs	pc, lr

00008080 <software_interrupt_vector>:
    8080:	e1b0f00e 	movs	pc, lr

00008084 <prefetch_abort_vector>:
    8084:	e25ef004 	subs	pc, lr, #4

00008088 <interrupt_vector>:
    8088:	e25ef004 	subs	pc, lr, #4

0000808c <fast_interrupt_vector>:
    808c:	e25ef004 	subs	pc, lr, #4
    8090:	00008044 	andeq	r8, r0, r4, asr #32

00008094 <_cstartup>:
    8094:	e92d4800 	push	{fp, lr}
    8098:	e28db004 	add	fp, sp, #4
    809c:	e24dd008 	sub	sp, sp, #8
    80a0:	e3083d80 	movw	r3, #36224	; 0x8d80
    80a4:	e3403000 	movt	r3, #0
    80a8:	e50b3008 	str	r3, [fp, #-8]
    80ac:	e3083e28 	movw	r3, #36392	; 0x8e28
    80b0:	e3403000 	movt	r3, #0
    80b4:	e50b300c 	str	r3, [fp, #-12]
    80b8:	e51b2008 	ldr	r2, [fp, #-8]
    80bc:	e51b300c 	ldr	r3, [fp, #-12]
    80c0:	e1520003 	cmp	r2, r3
    80c4:	2a000006 	bcs	80e4 <_cstartup+0x50>
    80c8:	e51b3008 	ldr	r3, [fp, #-8]
    80cc:	e3a02000 	mov	r2, #0
    80d0:	e5832000 	str	r2, [r3]
    80d4:	e51b3008 	ldr	r3, [fp, #-8]
    80d8:	e2833004 	add	r3, r3, #4
    80dc:	e50b3008 	str	r3, [fp, #-8]
    80e0:	eafffff4 	b	80b8 <_cstartup+0x24>
    80e4:	e3083e28 	movw	r3, #36392	; 0x8e28
    80e8:	e3403000 	movt	r3, #0
    80ec:	e3e02000 	mvn	r2, #0
    80f0:	e5832000 	str	r2, [r3]
    80f4:	eb00010d 	bl	8530 <init_memory_manager>
    80f8:	eb0000e0 	bl	8480 <kernel_main>
    80fc:	eafffffe 	b	80fc <_cstartup+0x68>

00008100 <_Z10init_printm>:
    8100:	e92d4070 	push	{r4, r5, r6, lr}
    8104:	e3084d90 	movw	r4, #36240	; 0x8d90
    8108:	e3404000 	movt	r4, #0
    810c:	e1a05000 	mov	r5, r0
    8110:	e5940000 	ldr	r0, [r4]
    8114:	e0000090 	mul	r0, r0, r0
    8118:	e1a00300 	lsl	r0, r0, #6
    811c:	eb000121 	bl	85a8 <memory_alloc>
    8120:	e3081d80 	movw	r1, #36224	; 0x8d80
    8124:	e3401000 	movt	r1, #0
    8128:	e3083d8c 	movw	r3, #36236	; 0x8d8c
    812c:	e3403000 	movt	r3, #0
    8130:	e308291c 	movw	r2, #35100	; 0x891c
    8134:	e3402000 	movt	r2, #0
    8138:	e5845000 	str	r5, [r4]
    813c:	e5810000 	str	r0, [r1]
    8140:	e5832000 	str	r2, [r3]
    8144:	e8bd8070 	pop	{r4, r5, r6, pc}

00008148 <_Z15init_char_imagePKcmPm>:
    8148:	e92d43f0 	push	{r4, r5, r6, r7, r8, r9, lr}
    814c:	e1b05181 	lsls	r5, r1, #3
    8150:	08bd83f0 	popeq	{r4, r5, r6, r7, r8, r9, pc}
    8154:	e1a09281 	lsl	r9, r1, #5
    8158:	e1a08002 	mov	r8, r2
    815c:	e3a07000 	mov	r7, #0
    8160:	e73cf117 	udiv	ip, r7, r1
    8164:	e1a06008 	mov	r6, r8
    8168:	e3a03000 	mov	r3, #0
    816c:	e7d0e00c 	ldrb	lr, [r0, ip]
    8170:	e7a0c05e 	sbfx	ip, lr, #0, #1
    8174:	e582c000 	str	ip, [r2]
    8178:	ea000006 	b	8198 <_Z15init_char_imagePKcmPm+0x50>
    817c:	e73cf113 	udiv	ip, r3, r1
    8180:	e06c3c91 	mls	ip, r1, ip, r3
    8184:	e35c0000 	cmp	ip, #0
    8188:	e7a0c05e 	sbfx	ip, lr, #0, #1
    818c:	11a0400e 	movne	r4, lr
    8190:	e5a6c004 	str	ip, [r6, #4]!
    8194:	e1a0e004 	mov	lr, r4
    8198:	e2833001 	add	r3, r3, #1
    819c:	e1a040ae 	lsr	r4, lr, #1
    81a0:	e1550003 	cmp	r5, r3
    81a4:	1afffff4 	bne	817c <_Z15init_char_imagePKcmPm+0x34>
    81a8:	e2877001 	add	r7, r7, #1
    81ac:	e0822009 	add	r2, r2, r9
    81b0:	e1550007 	cmp	r5, r7
    81b4:	e0888009 	add	r8, r8, r9
    81b8:	1affffe8 	bne	8160 <_Z15init_char_imagePKcmPm+0x18>
    81bc:	e8bd83f0 	pop	{r4, r5, r6, r7, r8, r9, pc}

000081c0 <_Z8drawCharPmmmm>:
    81c0:	e92d47f0 	push	{r4, r5, r6, r7, r8, r9, sl, lr}
    81c4:	e1a07181 	lsl	r7, r1, #3
    81c8:	e3570000 	cmp	r7, #0
    81cc:	e0020792 	mul	r2, r2, r7
    81d0:	e0030793 	mul	r3, r3, r7
    81d4:	08bd87f0 	popeq	{r4, r5, r6, r7, r8, r9, sl, pc}
    81d8:	e3084e0c 	movw	r4, #36364	; 0x8e0c
    81dc:	e3404000 	movt	r4, #0
    81e0:	e1a08281 	lsl	r8, r1, #5
    81e4:	e0879003 	add	r9, r7, r3
    81e8:	e1a05000 	mov	r5, r0
    81ec:	e3a0c000 	mov	ip, #0
    81f0:	e5941008 	ldr	r1, [r4, #8]
    81f4:	e594e010 	ldr	lr, [r4, #16]
    81f8:	e594a014 	ldr	sl, [r4, #20]
    81fc:	e4956004 	ldr	r6, [r5], #4
    8200:	e0212391 	mla	r1, r1, r3, r2
    8204:	e3caa103 	bic	sl, sl, #-1073741824	; 0xc0000000
    8208:	e081100c 	add	r1, r1, ip
    820c:	e28cc001 	add	ip, ip, #1
    8210:	e157000c 	cmp	r7, ip
    8214:	e001019e 	mul	r1, lr, r1
    8218:	e78a61a1 	str	r6, [sl, r1, lsr #3]
    821c:	1afffff3 	bne	81f0 <_Z8drawCharPmmmm+0x30>
    8220:	e2833001 	add	r3, r3, #1
    8224:	e0800008 	add	r0, r0, r8
    8228:	e1590003 	cmp	r9, r3
    822c:	1affffed 	bne	81e8 <_Z8drawCharPmmmm+0x28>
    8230:	e8bd87f0 	pop	{r4, r5, r6, r7, r8, r9, sl, pc}

00008234 <_Z4itosm>:
    8234:	e92d41f0 	push	{r4, r5, r6, r7, r8, lr}
    8238:	e30c2ccd 	movw	r2, #52429	; 0xcccd
    823c:	e34c2ccc 	movt	r2, #52428	; 0xcccc
    8240:	e1a06000 	mov	r6, r0
    8244:	e1a04000 	mov	r4, r0
    8248:	e3a05000 	mov	r5, #0
    824c:	ea000000 	b	8254 <_Z4itosm+0x20>
    8250:	e1a05007 	mov	r5, r7
    8254:	e0831492 	umull	r1, r3, r2, r4
    8258:	e2857001 	add	r7, r5, #1
    825c:	e1b041a3 	lsrs	r4, r3, #3
    8260:	1afffffa 	bne	8250 <_Z4itosm+0x1c>
    8264:	e2850002 	add	r0, r5, #2
    8268:	eb0000ce 	bl	85a8 <memory_alloc>
    826c:	e30ccccd 	movw	ip, #52429	; 0xcccd
    8270:	e34ccccc 	movt	ip, #52428	; 0xcccc
    8274:	e0803005 	add	r3, r0, r5
    8278:	e3a0e00a 	mov	lr, #10
    827c:	e2405001 	sub	r5, r0, #1
    8280:	e7c04007 	strb	r4, [r0, r7]
    8284:	e082169c 	umull	r1, r2, ip, r6
    8288:	e1a021a2 	lsr	r2, r2, #3
    828c:	e061629e 	mls	r1, lr, r2, r6
    8290:	e1a06002 	mov	r6, r2
    8294:	e2812030 	add	r2, r1, #48	; 0x30
    8298:	e4432001 	strb	r2, [r3], #-1
    829c:	e1530005 	cmp	r3, r5
    82a0:	1afffff7 	bne	8284 <_Z4itosm+0x50>
    82a4:	e8bd81f0 	pop	{r4, r5, r6, r7, r8, pc}

000082a8 <_Z5printPc>:
    82a8:	e92d4ff0 	push	{r4, r5, r6, r7, r8, r9, sl, fp, lr}
    82ac:	e3083d80 	movw	r3, #36224	; 0x8d80
    82b0:	e3403000 	movt	r3, #0
    82b4:	e28db020 	add	fp, sp, #32
    82b8:	e1a02003 	mov	r2, r3
    82bc:	e24dd01c 	sub	sp, sp, #28
    82c0:	e50b3030 	str	r3, [fp, #-48]	; 0xffffffd0
    82c4:	e3083d90 	movw	r3, #36240	; 0x8d90
    82c8:	e3403000 	movt	r3, #0
    82cc:	e1a01003 	mov	r1, r3
    82d0:	e50b3034 	str	r3, [fp, #-52]	; 0xffffffcc
    82d4:	e5d03000 	ldrb	r3, [r0]
    82d8:	e5924004 	ldr	r4, [r2, #4]
    82dc:	e3530000 	cmp	r3, #0
    82e0:	e5917000 	ldr	r7, [r1]
    82e4:	e5925008 	ldr	r5, [r2, #8]
    82e8:	01a03187 	lsleq	r3, r7, #3
    82ec:	0308ae0c 	movweq	sl, #36364	; 0x8e0c
    82f0:	050b3028 	streq	r3, [fp, #-40]	; 0xffffffd8
    82f4:	0340a000 	movteq	sl, #0
    82f8:	0a000030 	beq	83c0 <_Z5printPc+0x118>
    82fc:	e3082d8c 	movw	r2, #36236	; 0x8d8c
    8300:	e3402000 	movt	r2, #0
    8304:	e308ae0c 	movw	sl, #36364	; 0x8e0c
    8308:	e340a000 	movt	sl, #0
    830c:	e50b2038 	str	r2, [fp, #-56]	; 0xffffffc8
    8310:	e1a06000 	mov	r6, r0
    8314:	e1a02187 	lsl	r2, r7, #3
    8318:	e50b2028 	str	r2, [fp, #-40]	; 0xffffffd8
    831c:	e59a2008 	ldr	r2, [sl, #8]
    8320:	e1a0900d 	mov	r9, sp
    8324:	e51b0028 	ldr	r0, [fp, #-40]	; 0xffffffd8
    8328:	e1a01007 	mov	r1, r7
    832c:	e732f012 	udiv	r2, r2, r0
    8330:	e1520004 	cmp	r2, r4
    8334:	92855001 	addls	r5, r5, #1
    8338:	93a04000 	movls	r4, #0
    833c:	e353000a 	cmp	r3, #10
    8340:	02855001 	addeq	r5, r5, #1
    8344:	03a04000 	moveq	r4, #0
    8348:	0a000019 	beq	83b4 <_Z5printPc+0x10c>
    834c:	e51b2034 	ldr	r2, [fp, #-52]	; 0xffffffcc
    8350:	e51b0038 	ldr	r0, [fp, #-56]	; 0xffffffc8
    8354:	e5922000 	ldr	r2, [r2]
    8358:	e5900000 	ldr	r0, [r0]
    835c:	e0020292 	mul	r2, r2, r2
    8360:	e0803183 	add	r3, r0, r3, lsl #3
    8364:	e1a00003 	mov	r0, r3
    8368:	e50b302c 	str	r3, [fp, #-44]	; 0xffffffd4
    836c:	e1a02402 	lsl	r2, r2, #8
    8370:	e2822008 	add	r2, r2, #8
    8374:	e04dd002 	sub	sp, sp, r2
    8378:	e1a0200d 	mov	r2, sp
    837c:	ebffff71 	bl	8148 <_Z15init_char_imagePKcmPm>
    8380:	e51b302c 	ldr	r3, [fp, #-44]	; 0xffffffd4
    8384:	e1a01007 	mov	r1, r7
    8388:	e1a00003 	mov	r0, r3
    838c:	e51b3030 	ldr	r3, [fp, #-48]	; 0xffffffd0
    8390:	e5932000 	ldr	r2, [r3]
    8394:	ebffff6b 	bl	8148 <_Z15init_char_imagePKcmPm>
    8398:	e1a02004 	mov	r2, r4
    839c:	e1a0000d 	mov	r0, sp
    83a0:	e1a03005 	mov	r3, r5
    83a4:	e1a01007 	mov	r1, r7
    83a8:	e2844001 	add	r4, r4, #1
    83ac:	ebffff83 	bl	81c0 <_Z8drawCharPmmmm>
    83b0:	e1a0d009 	mov	sp, r9
    83b4:	e5f63001 	ldrb	r3, [r6, #1]!
    83b8:	e3530000 	cmp	r3, #0
    83bc:	1affffd6 	bne	831c <_Z5printPc+0x74>
    83c0:	e51b2028 	ldr	r2, [fp, #-40]	; 0xffffffd8
    83c4:	e59a300c 	ldr	r3, [sl, #12]
    83c8:	e51b1030 	ldr	r1, [fp, #-48]	; 0xffffffd0
    83cc:	e733f213 	udiv	r3, r3, r2
    83d0:	e5814004 	str	r4, [r1, #4]
    83d4:	e732f315 	udiv	r2, r5, r3
    83d8:	e0655293 	mls	r5, r3, r2, r5
    83dc:	e5815008 	str	r5, [r1, #8]
    83e0:	e24bd020 	sub	sp, fp, #32
    83e4:	e8bd8ff0 	pop	{r4, r5, r6, r7, r8, r9, sl, fp, pc}

000083e8 <_Z5printm>:
    83e8:	e92d4010 	push	{r4, lr}
    83ec:	ebffff90 	bl	8234 <_Z4itosm>
    83f0:	e1a04000 	mov	r4, r0
    83f4:	ebffffab 	bl	82a8 <_Z5printPc>
    83f8:	e1a00004 	mov	r0, r4
    83fc:	e8bd4010 	pop	{r4, lr}
    8400:	ea0000a9 	b	86ac <memory_free>

00008404 <_Z5printPKc>:
    8404:	eaffffa7 	b	82a8 <_Z5printPc>

00008408 <get_time_cycle>:
    8408:	e3a03a03 	mov	r3, #12288	; 0x3000
    840c:	e3433f00 	movt	r3, #16128	; 0x3f00
    8410:	e5930004 	ldr	r0, [r3, #4]
    8414:	e12fff1e 	bx	lr

00008418 <wait>:
    8418:	e52db004 	push	{fp}		; (str fp, [sp, #-4]!)
    841c:	e28db000 	add	fp, sp, #0
    8420:	e24dd014 	sub	sp, sp, #20
    8424:	e50b0010 	str	r0, [fp, #-16]
    8428:	e3033004 	movw	r3, #12292	; 0x3004
    842c:	e3433f00 	movt	r3, #16128	; 0x3f00
    8430:	e50b3008 	str	r3, [fp, #-8]
    8434:	e51b3008 	ldr	r3, [fp, #-8]
    8438:	e5932000 	ldr	r2, [r3]
    843c:	e51b3010 	ldr	r3, [fp, #-16]
    8440:	e0823003 	add	r3, r2, r3
    8444:	e50b300c 	str	r3, [fp, #-12]
    8448:	e51b3008 	ldr	r3, [fp, #-8]
    844c:	e5932000 	ldr	r2, [r3]
    8450:	e51b300c 	ldr	r3, [fp, #-12]
    8454:	e1520003 	cmp	r2, r3
    8458:	33a03001 	movcc	r3, #1
    845c:	23a03000 	movcs	r3, #0
    8460:	e6ef3073 	uxtb	r3, r3
    8464:	e3530000 	cmp	r3, #0
    8468:	0a000000 	beq	8470 <wait+0x58>
    846c:	eafffff5 	b	8448 <wait+0x30>
    8470:	e320f000 	nop	{0}
    8474:	e28bd000 	add	sp, fp, #0
    8478:	e49db004 	pop	{fp}		; (ldr fp, [sp], #4)
    847c:	e12fff1e 	bx	lr

00008480 <kernel_main>:
    8480:	e92d4010 	push	{r4, lr}
    8484:	e3084e0c 	movw	r4, #36364	; 0x8e0c
    8488:	e3404000 	movt	r4, #0
    848c:	eb0000f9 	bl	8878 <init_display>
    8490:	e3a0000a 	mov	r0, #10
    8494:	ebffff19 	bl	8100 <_Z10init_printm>
    8498:	e3080d38 	movw	r0, #36152	; 0x8d38
    849c:	e3400000 	movt	r0, #0
    84a0:	ebffffd7 	bl	8404 <_Z5printPKc>
    84a4:	e3083d80 	movw	r3, #36224	; 0x8d80
    84a8:	e3403000 	movt	r3, #0
    84ac:	e5930000 	ldr	r0, [r3]
    84b0:	ebffffcc 	bl	83e8 <_Z5printm>
    84b4:	e3080d68 	movw	r0, #36200	; 0x8d68
    84b8:	e3400000 	movt	r0, #0
    84bc:	ebffffd0 	bl	8404 <_Z5printPKc>
    84c0:	e5940014 	ldr	r0, [r4, #20]
    84c4:	e3c00103 	bic	r0, r0, #-1073741824	; 0xc0000000
    84c8:	ebffffc6 	bl	83e8 <_Z5printm>
    84cc:	e3080d68 	movw	r0, #36200	; 0x8d68
    84d0:	e3400000 	movt	r0, #0
    84d4:	ebffffca 	bl	8404 <_Z5printPKc>
    84d8:	e3080d6c 	movw	r0, #36204	; 0x8d6c
    84dc:	e3400000 	movt	r0, #0
    84e0:	ebffffc7 	bl	8404 <_Z5printPKc>
    84e4:	e3082d90 	movw	r2, #36240	; 0x8d90
    84e8:	e3402000 	movt	r2, #0
    84ec:	e5923000 	ldr	r3, [r2]
    84f0:	e0030393 	mul	r3, r3, r3
    84f4:	e1b03303 	lsls	r3, r3, #6
    84f8:	0a000009 	beq	8524 <kernel_main+0xa4>
    84fc:	e3a03000 	mov	r3, #0
    8500:	e3e008ff 	mvn	r0, #16711680	; 0xff0000
    8504:	e5941014 	ldr	r1, [r4, #20]
    8508:	e3c11103 	bic	r1, r1, #-1073741824	; 0xc0000000
    850c:	e7810103 	str	r0, [r1, r3, lsl #2]
    8510:	e2833001 	add	r3, r3, #1
    8514:	e5921000 	ldr	r1, [r2]
    8518:	e0010191 	mul	r1, r1, r1
    851c:	e1530301 	cmp	r3, r1, lsl #6
    8520:	3afffff7 	bcc	8504 <kernel_main+0x84>
    8524:	eb00009b 	bl	8798 <blink>
    8528:	eb00009a 	bl	8798 <blink>
    852c:	eafffffc 	b	8524 <kernel_main+0xa4>

00008530 <init_memory_manager>:
    8530:	e3e0220d 	mvn	r2, #-805306368	; 0xd0000000
    8534:	e3083d94 	movw	r3, #36244	; 0x8d94
    8538:	e3403000 	movt	r3, #0
    853c:	e92d4030 	push	{r4, r5, lr}
    8540:	e3e042bd 	mvn	r4, #-805306357	; 0xd000000b
    8544:	e3e0e2fd 	mvn	lr, #-805306353	; 0xd000000f
    8548:	e3a01000 	mov	r1, #0
    854c:	e3a05203 	mov	r5, #805306368	; 0x30000000
    8550:	e3080e28 	movw	r0, #36392	; 0x8e28
    8554:	e3400000 	movt	r0, #0
    8558:	e3a0c002 	mov	ip, #2
    855c:	e5835000 	str	r5, [r3]
    8560:	e5834004 	str	r4, [r3, #4]
    8564:	e583000c 	str	r0, [r3, #12]
    8568:	e583e010 	str	lr, [r3, #16]
    856c:	e5831008 	str	r1, [r3, #8]
    8570:	e502100f 	str	r1, [r2, #-15]
    8574:	e502100b 	str	r1, [r2, #-11]
    8578:	e542c007 	strb	ip, [r2, #-7]
    857c:	e8bd8030 	pop	{r4, r5, pc}

00008580 <_Z14increment_heapm>:
    8580:	e3083d94 	movw	r3, #36244	; 0x8d94
    8584:	e3403000 	movt	r3, #0
    8588:	e2002003 	and	r2, r0, #3
    858c:	e0820000 	add	r0, r2, r0
    8590:	e5932004 	ldr	r2, [r3, #4]
    8594:	e593100c 	ldr	r1, [r3, #12]
    8598:	e0420000 	sub	r0, r2, r0
    859c:	e1500001 	cmp	r0, r1
    85a0:	85830004 	strhi	r0, [r3, #4]
    85a4:	e12fff1e 	bx	lr

000085a8 <memory_alloc>:
    85a8:	e92d4030 	push	{r4, r5, lr}
    85ac:	e308ed94 	movw	lr, #36244	; 0x8d94
    85b0:	e340e000 	movt	lr, #0
    85b4:	e59e3010 	ldr	r3, [lr, #16]
    85b8:	ea000000 	b	85c0 <memory_alloc+0x18>
    85bc:	e1a03002 	mov	r3, r2
    85c0:	e5d32008 	ldrb	r2, [r3, #8]
    85c4:	e3520000 	cmp	r2, #0
    85c8:	1a000002 	bne	85d8 <memory_alloc+0x30>
    85cc:	e5932004 	ldr	r2, [r3, #4]
    85d0:	e1500002 	cmp	r0, r2
    85d4:	9a00001c 	bls	864c <memory_alloc+0xa4>
    85d8:	e5932000 	ldr	r2, [r3]
    85dc:	e3520000 	cmp	r2, #0
    85e0:	1afffff5 	bne	85bc <memory_alloc+0x14>
    85e4:	e0431000 	sub	r1, r3, r0
    85e8:	e59ec004 	ldr	ip, [lr, #4]
    85ec:	e241100c 	sub	r1, r1, #12
    85f0:	e15c0001 	cmp	ip, r1
    85f4:	8a000001 	bhi	8600 <memory_alloc+0x58>
    85f8:	e1a00002 	mov	r0, r2
    85fc:	e8bd8030 	pop	{r4, r5, pc}
    8600:	e28c200c 	add	r2, ip, #12
    8604:	e59e500c 	ldr	r5, [lr, #12]
    8608:	e0821000 	add	r1, r2, r0
    860c:	e0414003 	sub	r4, r1, r3
    8610:	e2041003 	and	r1, r4, #3
    8614:	e0811004 	add	r1, r1, r4
    8618:	e04c1001 	sub	r1, ip, r1
    861c:	e1510005 	cmp	r1, r5
    8620:	81a0c001 	movhi	ip, r1
    8624:	858e1004 	strhi	r1, [lr, #4]
    8628:	828c200c 	addhi	r2, ip, #12
    862c:	e3a0e000 	mov	lr, #0
    8630:	e3a01002 	mov	r1, #2
    8634:	e58c0004 	str	r0, [ip, #4]
    8638:	e1a00002 	mov	r0, r2
    863c:	e58ce000 	str	lr, [ip]
    8640:	e5cc1008 	strb	r1, [ip, #8]
    8644:	e583c000 	str	ip, [r3]
    8648:	e8bd8030 	pop	{r4, r5, pc}
    864c:	e283000c 	add	r0, r3, #12
    8650:	e8bd8030 	pop	{r4, r5, pc}

00008654 <memory_re_alloc>:
    8654:	e5102008 	ldr	r2, [r0, #-8]
    8658:	e1a03000 	mov	r3, r0
    865c:	e1520001 	cmp	r2, r1
    8660:	212fff1e 	bxcs	lr
    8664:	e3a02000 	mov	r2, #0
    8668:	e1a00001 	mov	r0, r1
    866c:	e5432004 	strb	r2, [r3, #-4]
    8670:	eaffffcc 	b	85a8 <memory_alloc>

00008674 <memory_calloc>:
    8674:	e2002003 	and	r2, r0, #3
    8678:	e92d4010 	push	{r4, lr}
    867c:	e0824000 	add	r4, r2, r0
    8680:	e1a00004 	mov	r0, r4
    8684:	ebffffc7 	bl	85a8 <memory_alloc>
    8688:	e3540000 	cmp	r4, #0
    868c:	08bd8010 	popeq	{r4, pc}
    8690:	e0802104 	add	r2, r0, r4, lsl #2
    8694:	e1a03000 	mov	r3, r0
    8698:	e3a01000 	mov	r1, #0
    869c:	e4831004 	str	r1, [r3], #4
    86a0:	e1530002 	cmp	r3, r2
    86a4:	1afffffc 	bne	869c <memory_calloc+0x28>
    86a8:	e8bd8010 	pop	{r4, pc}

000086ac <memory_free>:
    86ac:	e3a03000 	mov	r3, #0
    86b0:	e5403004 	strb	r3, [r0, #-4]
    86b4:	e12fff1e 	bx	lr

000086b8 <_Z16write_to_mailboxm7Channel>:
    86b8:	e3a02a0b 	mov	r2, #45056	; 0xb000
    86bc:	e3432f00 	movt	r2, #16128	; 0x3f00
    86c0:	e5923898 	ldr	r3, [r2, #2200]	; 0x898
    86c4:	e3530000 	cmp	r3, #0
    86c8:	bafffffc 	blt	86c0 <_Z16write_to_mailboxm7Channel+0x8>
    86cc:	e3c0000f 	bic	r0, r0, #15
    86d0:	e1801001 	orr	r1, r0, r1
    86d4:	e58218a0 	str	r1, [r2, #2208]	; 0x8a0
    86d8:	e12fff1e 	bx	lr

000086dc <read_from_mailbox>:
    86dc:	e3a02a0b 	mov	r2, #45056	; 0xb000
    86e0:	e3432f00 	movt	r2, #16128	; 0x3f00
    86e4:	e5923898 	ldr	r3, [r2, #2200]	; 0x898
    86e8:	e3130101 	tst	r3, #1073741824	; 0x40000000
    86ec:	1afffffc 	bne	86e4 <read_from_mailbox+0x8>
    86f0:	e5922880 	ldr	r2, [r2, #2176]	; 0x880
    86f4:	e202300f 	and	r3, r2, #15
    86f8:	e1530000 	cmp	r3, r0
    86fc:	1afffffd 	bne	86f8 <read_from_mailbox+0x1c>
    8700:	e3c2000f 	bic	r0, r2, #15
    8704:	e12fff1e 	bx	lr

00008708 <set_LED>:
    8708:	e3082db0 	movw	r2, #36272	; 0x8db0
    870c:	e3402000 	movt	r2, #0
    8710:	e92d4030 	push	{r4, r5, lr}
    8714:	e3a03000 	mov	r3, #0
    8718:	e3a01008 	mov	r1, #8
    871c:	e308e041 	movw	lr, #32833	; 0x8041
    8720:	e340e003 	movt	lr, #3
    8724:	e3a05082 	mov	r5, #130	; 0x82
    8728:	e3a04020 	mov	r4, #32
    872c:	e3a0ca0b 	mov	ip, #45056	; 0xb000
    8730:	e343cf00 	movt	ip, #16128	; 0x3f00
    8734:	e5820018 	str	r0, [r2, #24]
    8738:	e582e008 	str	lr, [r2, #8]
    873c:	e5825014 	str	r5, [r2, #20]
    8740:	e5824000 	str	r4, [r2]
    8744:	e5823004 	str	r3, [r2, #4]
    8748:	e5823010 	str	r3, [r2, #16]
    874c:	e582301c 	str	r3, [r2, #28]
    8750:	e582100c 	str	r1, [r2, #12]
    8754:	e5821058 	str	r1, [r2, #88]	; 0x58
    8758:	e59c3898 	ldr	r3, [ip, #2200]	; 0x898
    875c:	e3530000 	cmp	r3, #0
    8760:	bafffffc 	blt	8758 <set_LED+0x50>
    8764:	e3c2200f 	bic	r2, r2, #15
    8768:	e3a01a0b 	mov	r1, #45056	; 0xb000
    876c:	e3431f00 	movt	r1, #16128	; 0x3f00
    8770:	e3822008 	orr	r2, r2, #8
    8774:	e58c28a0 	str	r2, [ip, #2208]	; 0x8a0
    8778:	e5913898 	ldr	r3, [r1, #2200]	; 0x898
    877c:	e3130101 	tst	r3, #1073741824	; 0x40000000
    8780:	1afffffc 	bne	8778 <set_LED+0x70>
    8784:	e5913880 	ldr	r3, [r1, #2176]	; 0x880
    8788:	e203300f 	and	r3, r3, #15
    878c:	e3530008 	cmp	r3, #8
    8790:	1afffffd 	bne	878c <set_LED+0x84>
    8794:	e8bd8030 	pop	{r4, r5, pc}

00008798 <blink>:
    8798:	e92d4010 	push	{r4, lr}
    879c:	e3a00001 	mov	r0, #1
    87a0:	ebffffd8 	bl	8708 <set_LED>
    87a4:	e3a0080f 	mov	r0, #983040	; 0xf0000
    87a8:	ebffff1a 	bl	8418 <wait>
    87ac:	e3a00000 	mov	r0, #0
    87b0:	ebffffd4 	bl	8708 <set_LED>
    87b4:	e3a0080f 	mov	r0, #983040	; 0xf0000
    87b8:	e8bd4010 	pop	{r4, lr}
    87bc:	eaffff15 	b	8418 <wait>

000087c0 <_Z24set_init_display_messageP12Display_info>:
    87c0:	e3083db0 	movw	r3, #36272	; 0x8db0
    87c4:	e3403000 	movt	r3, #0
    87c8:	e3a02008 	mov	r2, #8
    87cc:	e3a01000 	mov	r1, #0
    87d0:	e308c003 	movw	ip, #32771	; 0x8003
    87d4:	e340c004 	movt	ip, #4
    87d8:	e92d4070 	push	{r4, r5, r6, lr}
    87dc:	e3085004 	movw	r5, #32772	; 0x8004
    87e0:	e3405004 	movt	r5, #4
    87e4:	e583c008 	str	ip, [r3, #8]
    87e8:	e3a0e004 	mov	lr, #4
    87ec:	e5831004 	str	r1, [r3, #4]
    87f0:	e3084005 	movw	r4, #32773	; 0x8005
    87f4:	e3404004 	movt	r4, #4
    87f8:	e583200c 	str	r2, [r3, #12]
    87fc:	e3a0c001 	mov	ip, #1
    8800:	e340c004 	movt	ip, #4
    8804:	e5832010 	str	r2, [r3, #16]
    8808:	e5906000 	ldr	r6, [r0]
    880c:	e5836014 	str	r6, [r3, #20]
    8810:	e5906004 	ldr	r6, [r0, #4]
    8814:	e583501c 	str	r5, [r3, #28]
    8818:	e3a05010 	mov	r5, #16
    881c:	e5832020 	str	r2, [r3, #32]
    8820:	e5836018 	str	r6, [r3, #24]
    8824:	e5832024 	str	r2, [r3, #36]	; 0x24
    8828:	e5906008 	ldr	r6, [r0, #8]
    882c:	e5836028 	str	r6, [r3, #40]	; 0x28
    8830:	e590600c 	ldr	r6, [r0, #12]
    8834:	e5834030 	str	r4, [r3, #48]	; 0x30
    8838:	e3a04016 	mov	r4, #22
    883c:	e583e034 	str	lr, [r3, #52]	; 0x34
    8840:	e583e038 	str	lr, [r3, #56]	; 0x38
    8844:	e3a0e058 	mov	lr, #88	; 0x58
    8848:	e583602c 	str	r6, [r3, #44]	; 0x2c
    884c:	e5834058 	str	r4, [r3, #88]	; 0x58
    8850:	e5900010 	ldr	r0, [r0, #16]
    8854:	e5832044 	str	r2, [r3, #68]	; 0x44
    8858:	e583003c 	str	r0, [r3, #60]	; 0x3c
    885c:	e5832048 	str	r2, [r3, #72]	; 0x48
    8860:	e5831050 	str	r1, [r3, #80]	; 0x50
    8864:	e5831054 	str	r1, [r3, #84]	; 0x54
    8868:	e583c040 	str	ip, [r3, #64]	; 0x40
    886c:	e583504c 	str	r5, [r3, #76]	; 0x4c
    8870:	e583e000 	str	lr, [r3]
    8874:	e8bd8070 	pop	{r4, r5, r6, pc}

00008878 <init_display>:
    8878:	e308cd1c 	movw	ip, #36124	; 0x8d1c
    887c:	e340c000 	movt	ip, #0
    8880:	e92d4010 	push	{r4, lr}
    8884:	e3084db0 	movw	r4, #36272	; 0x8db0
    8888:	e3404000 	movt	r4, #0
    888c:	e8bc000f 	ldm	ip!, {r0, r1, r2, r3}
    8890:	e284e05c 	add	lr, r4, #92	; 0x5c
    8894:	e8ae000f 	stmia	lr!, {r0, r1, r2, r3}
    8898:	e89c0007 	ldm	ip, {r0, r1, r2}
    889c:	e88e0007 	stm	lr, {r0, r1, r2}
    88a0:	e284005c 	add	r0, r4, #92	; 0x5c
    88a4:	ebffffc5 	bl	87c0 <_Z24set_init_display_messageP12Display_info>
    88a8:	e3a01a0b 	mov	r1, #45056	; 0xb000
    88ac:	e3431f00 	movt	r1, #16128	; 0x3f00
    88b0:	e5913898 	ldr	r3, [r1, #2200]	; 0x898
    88b4:	e3530000 	cmp	r3, #0
    88b8:	bafffffc 	blt	88b0 <init_display+0x38>
    88bc:	e3c4300f 	bic	r3, r4, #15
    88c0:	e3a02a0b 	mov	r2, #45056	; 0xb000
    88c4:	e3432f00 	movt	r2, #16128	; 0x3f00
    88c8:	e3833123 	orr	r3, r3, #-1073741816	; 0xc0000008
    88cc:	e58138a0 	str	r3, [r1, #2208]	; 0x8a0
    88d0:	e5923898 	ldr	r3, [r2, #2200]	; 0x898
    88d4:	e3130101 	tst	r3, #1073741824	; 0x40000000
    88d8:	1afffffc 	bne	88d0 <init_display+0x58>
    88dc:	e5923880 	ldr	r3, [r2, #2176]	; 0x880
    88e0:	e203300f 	and	r3, r3, #15
    88e4:	e3530008 	cmp	r3, #8
    88e8:	1afffffd 	bne	88e4 <init_display+0x6c>
    88ec:	e5943004 	ldr	r3, [r4, #4]
    88f0:	e3530106 	cmp	r3, #-2147483647	; 0x80000001
    88f4:	1a000003 	bne	8908 <init_display+0x90>
    88f8:	ebffffa6 	bl	8798 <blink>
    88fc:	e5943004 	ldr	r3, [r4, #4]
    8900:	e3530106 	cmp	r3, #-2147483647	; 0x80000001
    8904:	0afffffb 	beq	88f8 <init_display+0x80>
    8908:	e594204c 	ldr	r2, [r4, #76]	; 0x4c
    890c:	e5943050 	ldr	r3, [r4, #80]	; 0x50
    8910:	e5842070 	str	r2, [r4, #112]	; 0x70
    8914:	e5843074 	str	r3, [r4, #116]	; 0x74
    8918:	e8bd8010 	pop	{r4, pc}

Disassembly of section .rodata:

0000891c <basic_font>:
	...
    8a24:	183c3c18 	ldmdane	ip!, {r3, r4, sl, fp, ip, sp}
    8a28:	00180018 	andseq	r0, r8, r8, lsl r0
    8a2c:	00003636 	andeq	r3, r0, r6, lsr r6
    8a30:	00000000 	andeq	r0, r0, r0
    8a34:	367f3636 			; <UNDEFINED> instruction: 0x367f3636
    8a38:	0036367f 	eorseq	r3, r6, pc, ror r6
    8a3c:	1e033e0c 	cdpne	14, 0, cr3, cr3, cr12, {0}
    8a40:	000c1f30 	andeq	r1, ip, r0, lsr pc
    8a44:	18336300 	ldmdane	r3!, {r8, r9, sp, lr}
    8a48:	0063660c 	rsbeq	r6, r3, ip, lsl #12
    8a4c:	6e1c361c 	mrcvs	6, 0, r3, cr12, cr12, {0}
    8a50:	006e333b 	rsbeq	r3, lr, fp, lsr r3
    8a54:	00030606 	andeq	r0, r3, r6, lsl #12
    8a58:	00000000 	andeq	r0, r0, r0
    8a5c:	06060c18 			; <UNDEFINED> instruction: 0x06060c18
    8a60:	00180c06 	andseq	r0, r8, r6, lsl #24
    8a64:	18180c06 	ldmdane	r8, {r1, r2, sl, fp}
    8a68:	00060c18 	andeq	r0, r6, r8, lsl ip
    8a6c:	ff3c6600 			; <UNDEFINED> instruction: 0xff3c6600
    8a70:	0000663c 	andeq	r6, r0, ip, lsr r6
    8a74:	3f0c0c00 	svccc	0x000c0c00
    8a78:	00000c0c 	andeq	r0, r0, ip, lsl #24
    8a7c:	00000000 	andeq	r0, r0, r0
    8a80:	060c0c00 	streq	r0, [ip], -r0, lsl #24
    8a84:	3f000000 	svccc	0x00000000
	...
    8a90:	000c0c00 	andeq	r0, ip, r0, lsl #24
    8a94:	0c183060 	ldceq	0, cr3, [r8], {96}	; 0x60
    8a98:	00010306 	andeq	r0, r1, r6, lsl #6
    8a9c:	7b73633e 	blvc	1ce179c <__bss_end__+0x1cd8974>
    8aa0:	003e676f 	eorseq	r6, lr, pc, ror #14
    8aa4:	0c0c0e0c 	stceq	14, cr0, [ip], {12}
    8aa8:	003f0c0c 	eorseq	r0, pc, ip, lsl #24
    8aac:	1c30331e 	ldcne	3, cr3, [r0], #-120	; 0xffffff88
    8ab0:	003f3306 	eorseq	r3, pc, r6, lsl #6
    8ab4:	1c30331e 	ldcne	3, cr3, [r0], #-120	; 0xffffff88
    8ab8:	001e3330 	andseq	r3, lr, r0, lsr r3
    8abc:	33363c38 	teqcc	r6, #56, 24	; 0x3800
    8ac0:	0078307f 	rsbseq	r3, r8, pc, ror r0
    8ac4:	301f033f 	andscc	r0, pc, pc, lsr r3	; <UNPREDICTABLE>
    8ac8:	001e3330 	andseq	r3, lr, r0, lsr r3
    8acc:	1f03061c 	svcne	0x0003061c
    8ad0:	001e3333 	andseq	r3, lr, r3, lsr r3
    8ad4:	1830333f 	ldmdane	r0!, {r0, r1, r2, r3, r4, r5, r8, r9, ip, sp}
    8ad8:	000c0c0c 	andeq	r0, ip, ip, lsl #24
    8adc:	1e33331e 	mrcne	3, 1, r3, cr3, cr14, {0}
    8ae0:	001e3333 	andseq	r3, lr, r3, lsr r3
    8ae4:	3e33331e 	mrccc	3, 1, r3, cr3, cr14, {0}
    8ae8:	000e1830 	andeq	r1, lr, r0, lsr r8
    8aec:	000c0c00 	andeq	r0, ip, r0, lsl #24
    8af0:	000c0c00 	andeq	r0, ip, r0, lsl #24
    8af4:	000c0c00 	andeq	r0, ip, r0, lsl #24
    8af8:	060c0c00 	streq	r0, [ip], -r0, lsl #24
    8afc:	03060c18 	movweq	r0, #27672	; 0x6c18
    8b00:	00180c06 	andseq	r0, r8, r6, lsl #24
    8b04:	003f0000 	eorseq	r0, pc, r0
    8b08:	00003f00 	andeq	r3, r0, r0, lsl #30
    8b0c:	30180c06 	andscc	r0, r8, r6, lsl #24
    8b10:	00060c18 	andeq	r0, r6, r8, lsl ip
    8b14:	1830331e 	ldmdane	r0!, {r1, r2, r3, r4, r8, r9, ip, sp}
    8b18:	000c000c 	andeq	r0, ip, ip
    8b1c:	7b7b633e 	blvc	1ee181c <__bss_end__+0x1ed89f4>
    8b20:	001e037b 	andseq	r0, lr, fp, ror r3
    8b24:	33331e0c 	teqcc	r3, #12, 28	; 0xc0
    8b28:	0033333f 	eorseq	r3, r3, pc, lsr r3
    8b2c:	3e66663f 	mcrcc	6, 3, r6, cr6, cr15, {1}
    8b30:	003f6666 	eorseq	r6, pc, r6, ror #12
    8b34:	0303663c 	movweq	r6, #13884	; 0x363c
    8b38:	003c6603 	eorseq	r6, ip, r3, lsl #12
    8b3c:	6666361f 			; <UNDEFINED> instruction: 0x6666361f
    8b40:	001f3666 	andseq	r3, pc, r6, ror #12
    8b44:	1e16467f 	mrcne	6, 0, r4, cr6, cr15, {3}
    8b48:	007f4616 	rsbseq	r4, pc, r6, lsl r6	; <UNPREDICTABLE>
    8b4c:	1e16467f 	mrcne	6, 0, r4, cr6, cr15, {3}
    8b50:	000f0616 	andeq	r0, pc, r6, lsl r6	; <UNPREDICTABLE>
    8b54:	0303663c 	movweq	r6, #13884	; 0x363c
    8b58:	007c6673 	rsbseq	r6, ip, r3, ror r6
    8b5c:	3f333333 	svccc	0x00333333
    8b60:	00333333 	eorseq	r3, r3, r3, lsr r3
    8b64:	0c0c0c1e 	stceq	12, cr0, [ip], {30}
    8b68:	001e0c0c 	andseq	r0, lr, ip, lsl #24
    8b6c:	30303078 	eorscc	r3, r0, r8, ror r0
    8b70:	001e3333 	andseq	r3, lr, r3, lsr r3
    8b74:	1e366667 	cfmsuba32ne	mvax3, mvax6, mvfx6, mvfx7
    8b78:	00676636 	rsbeq	r6, r7, r6, lsr r6
    8b7c:	0606060f 	streq	r0, [r6], -pc, lsl #12
    8b80:	007f6646 	rsbseq	r6, pc, r6, asr #12
    8b84:	7f7f7763 	svcvc	0x007f7763
    8b88:	0063636b 	rsbeq	r6, r3, fp, ror #6
    8b8c:	7b6f6763 	blvc	1be2920 <__bss_end__+0x1bd9af8>
    8b90:	00636373 	rsbeq	r6, r3, r3, ror r3
    8b94:	6363361c 	cmnvs	r3, #28, 12	; 0x1c00000
    8b98:	001c3663 	andseq	r3, ip, r3, ror #12
    8b9c:	3e66663f 	mcrcc	6, 3, r6, cr6, cr15, {1}
    8ba0:	000f0606 	andeq	r0, pc, r6, lsl #12
    8ba4:	3333331e 	teqcc	r3, #2013265920	; 0x78000000
    8ba8:	00381e3b 	eorseq	r1, r8, fp, lsr lr
    8bac:	3e66663f 	mcrcc	6, 3, r6, cr6, cr15, {1}
    8bb0:	00676636 	rsbeq	r6, r7, r6, lsr r6
    8bb4:	0e07331e 	mcreq	3, 0, r3, cr7, cr14, {0}
    8bb8:	001e3338 	andseq	r3, lr, r8, lsr r3
    8bbc:	0c0c2d3f 	stceq	13, cr2, [ip], {63}	; 0x3f
    8bc0:	001e0c0c 	andseq	r0, lr, ip, lsl #24
    8bc4:	33333333 	teqcc	r3, #-872415232	; 0xcc000000
    8bc8:	003f3333 	eorseq	r3, pc, r3, lsr r3	; <UNPREDICTABLE>
    8bcc:	33333333 	teqcc	r3, #-872415232	; 0xcc000000
    8bd0:	000c1e33 	andeq	r1, ip, r3, lsr lr
    8bd4:	6b636363 	blvs	18e1968 <__bss_end__+0x18d8b40>
    8bd8:	0063777f 	rsbeq	r7, r3, pc, ror r7
    8bdc:	1c366363 	ldcne	3, cr6, [r6], #-396	; 0xfffffe74
    8be0:	0063361c 	rsbeq	r3, r3, ip, lsl r6
    8be4:	1e333333 	mrcne	3, 1, r3, cr3, cr3, {1}
    8be8:	001e0c0c 	andseq	r0, lr, ip, lsl #24
    8bec:	1831637f 	ldmdane	r1!, {r0, r1, r2, r3, r4, r5, r6, r8, r9, sp, lr}
    8bf0:	007f664c 	rsbseq	r6, pc, ip, asr #12
    8bf4:	0606061e 			; <UNDEFINED> instruction: 0x0606061e
    8bf8:	001e0606 	andseq	r0, lr, r6, lsl #12
    8bfc:	180c0603 	stmdane	ip, {r0, r1, r9, sl}
    8c00:	00406030 	subeq	r6, r0, r0, lsr r0
    8c04:	1818181e 	ldmdane	r8, {r1, r2, r3, r4, fp, ip}
    8c08:	001e1818 	andseq	r1, lr, r8, lsl r8
    8c0c:	63361c08 	teqvs	r6, #8, 24	; 0x800
	...
    8c18:	ff000000 			; <UNDEFINED> instruction: 0xff000000
    8c1c:	00180c0c 	andseq	r0, r8, ip, lsl #24
    8c20:	00000000 	andeq	r0, r0, r0
    8c24:	301e0000 	andscc	r0, lr, r0
    8c28:	006e333e 	rsbeq	r3, lr, lr, lsr r3
    8c2c:	3e060607 	cfmadd32cc	mvax0, mvfx0, mvfx6, mvfx7
    8c30:	003b6666 	eorseq	r6, fp, r6, ror #12
    8c34:	331e0000 	tstcc	lr, #0
    8c38:	001e3303 	andseq	r3, lr, r3, lsl #6
    8c3c:	3e303038 	mrccc	0, 1, r3, cr0, cr8, {1}
    8c40:	006e3333 	rsbeq	r3, lr, r3, lsr r3
    8c44:	331e0000 	tstcc	lr, #0
    8c48:	001e033f 	andseq	r0, lr, pc, lsr r3
    8c4c:	0f06361c 	svceq	0x0006361c
    8c50:	000f0606 	andeq	r0, pc, r6, lsl #12
    8c54:	336e0000 	cmncc	lr, #0
    8c58:	1f303e33 	svcne	0x00303e33
    8c5c:	6e360607 	cfmsuba32vs	mvax0, mvax0, mvfx6, mvfx7
    8c60:	00676666 	rsbeq	r6, r7, r6, ror #12
    8c64:	0c0e000c 	stceq	0, cr0, [lr], {12}
    8c68:	001e0c0c 	andseq	r0, lr, ip, lsl #24
    8c6c:	30300030 	eorscc	r0, r0, r0, lsr r0
    8c70:	1e333330 	mrcne	3, 1, r3, cr3, cr0, {1}
    8c74:	36660607 	strbtcc	r0, [r6], -r7, lsl #12
    8c78:	0067361e 	rsbeq	r3, r7, lr, lsl r6
    8c7c:	0c0c0c0e 	stceq	12, cr0, [ip], {14}
    8c80:	001e0c0c 	andseq	r0, lr, ip, lsl #24
    8c84:	7f330000 	svcvc	0x00330000
    8c88:	00636b7f 	rsbeq	r6, r3, pc, ror fp
    8c8c:	331f0000 	tstcc	pc, #0
    8c90:	00333333 	eorseq	r3, r3, r3, lsr r3
    8c94:	331e0000 	tstcc	lr, #0
    8c98:	001e3333 	andseq	r3, lr, r3, lsr r3
    8c9c:	663b0000 	ldrtvs	r0, [fp], -r0
    8ca0:	0f063e66 	svceq	0x00063e66
    8ca4:	336e0000 	cmncc	lr, #0
    8ca8:	78303e33 	ldmdavc	r0!, {r0, r1, r4, r5, r9, sl, fp, ip, sp}
    8cac:	6e3b0000 	cdpvs	0, 3, cr0, cr11, cr0, {0}
    8cb0:	000f0666 	andeq	r0, pc, r6, ror #12
    8cb4:	033e0000 	teqeq	lr, #0
    8cb8:	001f301e 	andseq	r3, pc, lr, lsl r0	; <UNPREDICTABLE>
    8cbc:	0c3e0c08 	ldceq	12, cr0, [lr], #-32	; 0xffffffe0
    8cc0:	00182c0c 	andseq	r2, r8, ip, lsl #24
    8cc4:	33330000 	teqcc	r3, #0
    8cc8:	006e3333 	rsbeq	r3, lr, r3, lsr r3
    8ccc:	33330000 	teqcc	r3, #0
    8cd0:	000c1e33 	andeq	r1, ip, r3, lsr lr
    8cd4:	6b630000 	blvs	18c8cdc <__bss_end__+0x18bfeb4>
    8cd8:	00367f7f 	eorseq	r7, r6, pc, ror pc
    8cdc:	36630000 	strbtcc	r0, [r3], -r0
    8ce0:	0063361c 	rsbeq	r3, r3, ip, lsl r6
    8ce4:	33330000 	teqcc	r3, #0
    8ce8:	1f303e33 	svcne	0x00303e33
    8cec:	193f0000 	ldmdbne	pc!, {}	; <UNPREDICTABLE>
    8cf0:	003f260c 	eorseq	r2, pc, ip, lsl #12
    8cf4:	070c0c38 	smladxeq	ip, r8, ip, r0
    8cf8:	00380c0c 	eorseq	r0, r8, ip, lsl #24
    8cfc:	00181818 	andseq	r1, r8, r8, lsl r8
    8d00:	00181818 	andseq	r1, r8, r8, lsl r8
    8d04:	380c0c07 	stmdacc	ip, {r0, r1, r2, sl, fp}
    8d08:	00070c0c 	andeq	r0, r7, ip, lsl #24
    8d0c:	00003b6e 	andeq	r3, r0, lr, ror #22
	...

00008d1c <.LANCHOR1>:
    8d1c:	00000550 	andeq	r0, r0, r0, asr r5
    8d20:	00000300 	andeq	r0, r0, r0, lsl #6
    8d24:	00000550 	andeq	r0, r0, r0, asr r5
    8d28:	00000300 	andeq	r0, r0, r0, lsl #6
    8d2c:	00000020 	andeq	r0, r0, r0, lsr #32
	...

Disassembly of section .rodata.str1.4:

00008d38 <.rodata.str1.4>:
    8d38:	6f626f4e 	svcvs	0x00626f4e
    8d3c:	6b207964 	blvs	8272d4 <__bss_end__+0x81e4ac>
    8d40:	73776f6e 	cmnvc	r7, #440	; 0x1b8
    8d44:	776f6820 	strbvc	r6, [pc, -r0, lsr #16]!
    8d48:	72616820 	rsbvc	r6, r1, #32, 16	; 0x200000
    8d4c:	68742064 	ldmdavs	r4!, {r2, r5, r6, sp}^
    8d50:	0a207369 	beq	825afc <__bss_end__+0x81ccd4>
    8d54:	24234021 	strtcs	r4, [r3], #-33	; 0xffffffdf
    8d58:	2a265e25 	bcs	9a05f4 <__bss_end__+0x9977cc>
    8d5c:	2b5f2928 	blcs	17d3204 <__bss_end__+0x17ca3dc>
    8d60:	21736920 	cmncs	r3, r0, lsr #18
    8d64:	000a2121 	andeq	r2, sl, r1, lsr #2
    8d68:	0000000a 	andeq	r0, r0, sl
    8d6c:	79797979 	ldmdbvc	r9!, {r0, r3, r4, r5, r6, r8, fp, ip, sp, lr}^
    8d70:	00000a79 	andeq	r0, r0, r9, ror sl

Disassembly of section .bss:

00008d80 <char_buffer>:
    8d80:	00000000 	andeq	r0, r0, r0

00008d84 <main_cursor>:
	...

00008d8c <selected_font>:
    8d8c:	00000000 	andeq	r0, r0, r0

00008d90 <font_size>:
    8d90:	00000000 	andeq	r0, r0, r0

00008d94 <heap_start>:
    8d94:	00000000 	andeq	r0, r0, r0

00008d98 <heap_end>:
    8d98:	00000000 	andeq	r0, r0, r0

00008d9c <stack_start>:
    8d9c:	00000000 	andeq	r0, r0, r0

00008da0 <stack_end>:
    8da0:	00000000 	andeq	r0, r0, r0

00008da4 <first_block>:
	...

00008db0 <mailbox_message>:
	...

00008e08 <index>:
    8e08:	00000000 	andeq	r0, r0, r0

00008e0c <main_monitor>:
	...

Disassembly of section .kernel_end:

00008e28 <Kernel_End>:
    8e28:	00000064 	andeq	r0, r0, r4, rrx

Disassembly of section .comment:

00000000 <.comment>:
   0:	3a434347 	bcc	10d0d24 <__bss_end__+0x10c7efc>
   4:	4e472820 	cdpmi	8, 4, cr2, cr7, cr0, {1}
   8:	6f542055 	svcvs	0x00542055
   c:	20736c6f 	rsbscs	r6, r3, pc, ror #24
  10:	20726f66 	rsbscs	r6, r2, r6, ror #30
  14:	204d5241 	subcs	r5, sp, r1, asr #4
  18:	65626d45 	strbvs	r6, [r2, #-3397]!	; 0xfffff2bb
  1c:	64656464 	strbtvs	r6, [r5], #-1124	; 0xfffffb9c
  20:	6f725020 	svcvs	0x00725020
  24:	73736563 	cmnvc	r3, #415236096	; 0x18c00000
  28:	2073726f 	rsbscs	r7, r3, pc, ror #4
  2c:	30322d36 	eorscc	r2, r2, r6, lsr sp
  30:	712d3731 			; <UNDEFINED> instruction: 0x712d3731
  34:	70752d32 	rsbsvc	r2, r5, r2, lsr sp
  38:	65746164 	ldrbvs	r6, [r4, #-356]!	; 0xfffffe9c
  3c:	2e362029 	cdpcs	0, 3, cr2, cr6, cr9, {1}
  40:	20312e33 	eorscs	r2, r1, r3, lsr lr
  44:	37313032 			; <UNDEFINED> instruction: 0x37313032
  48:	35313230 	ldrcc	r3, [r1, #-560]!	; 0xfffffdd0
  4c:	65722820 	ldrbvs	r2, [r2, #-2080]!	; 0xfffff7e0
  50:	7361656c 	cmnvc	r1, #108, 10	; 0x1b000000
  54:	5b202965 	blpl	80a5f0 <__bss_end__+0x8017c8>
  58:	2f4d5241 	svccs	0x004d5241
  5c:	65626d65 	strbvs	r6, [r2, #-3429]!	; 0xfffff29b
  60:	64656464 	strbtvs	r6, [r5], #-1124	; 0xfffffb9c
  64:	622d362d 	eorvs	r3, sp, #47185920	; 0x2d00000
  68:	636e6172 	cmnvs	lr, #-2147483620	; 0x8000001c
  6c:	65722068 	ldrbvs	r2, [r2, #-104]!	; 0xffffff98
  70:	69736976 	ldmdbvs	r3!, {r1, r2, r4, r5, r6, r8, fp, sp, lr}^
  74:	32206e6f 	eorcc	r6, r0, #1776	; 0x6f0
  78:	31353534 	teqcc	r5, r4, lsr r5
  7c:	Address 0x000000000000007c is out of bounds.


Disassembly of section .ARM.attributes:

00000000 <.ARM.attributes>:
   0:	00003d41 	andeq	r3, r0, r1, asr #26
   4:	61656100 	cmnvs	r5, r0, lsl #2
   8:	01006962 	tsteq	r0, r2, ror #18
   c:	00000033 	andeq	r0, r0, r3, lsr r0
  10:	726f4305 	rsbvc	r4, pc, #335544320	; 0x14000000
  14:	2d786574 	cfldr64cs	mvdx6, [r8, #-464]!	; 0xfffffe30
  18:	00333541 	eorseq	r3, r3, r1, asr #10
  1c:	41070e06 	tstmi	r7, r6, lsl #28
  20:	02090108 	andeq	r0, r9, #8, 2
  24:	030c070a 	movweq	r0, #50954	; 0xc70a
  28:	01140412 	tsteq	r4, r2, lsl r4
  2c:	03170115 	tsteq	r7, #1073741829	; 0x40000005
  30:	011a0118 	tsteq	sl, r8, lsl r1
  34:	021e011c 	andseq	r0, lr, #28, 2
  38:	012a0122 			; <UNDEFINED> instruction: 0x012a0122
  3c:	Address 0x000000000000003c is out of bounds.

