
build/kernel.elf:     file format elf32-littlearm


Disassembly of section .init:

00008000 <_start>:
    8000:	e3a0dd7d 	mov	sp, #8000	; 0x1f40
    8004:	eaffffff 	b	8008 <kernel_main>

Disassembly of section .text:

00008008 <kernel_main>:
    8008:	e92d4800 	push	{fp, lr}
    800c:	e28db004 	add	fp, sp, #4
    8010:	e3a00001 	mov	r0, #1
    8014:	eb000042 	bl	8124 <set_LED>
    8018:	e3a0080f 	mov	r0, #983040	; 0xf0000
    801c:	eb000004 	bl	8034 <wait>
    8020:	e3a00000 	mov	r0, #0
    8024:	eb00003e 	bl	8124 <set_LED>
    8028:	e3a0080f 	mov	r0, #983040	; 0xf0000
    802c:	eb000000 	bl	8034 <wait>
    8030:	eafffff6 	b	8010 <kernel_main+0x8>

00008034 <wait>:
    8034:	e52db004 	push	{fp}		; (str fp, [sp, #-4]!)
    8038:	e28db000 	add	fp, sp, #0
    803c:	e24dd00c 	sub	sp, sp, #12
    8040:	e50b0008 	str	r0, [fp, #-8]
    8044:	ea000002 	b	8054 <wait+0x20>
    8048:	e51b3008 	ldr	r3, [fp, #-8]
    804c:	e2433001 	sub	r3, r3, #1
    8050:	e50b3008 	str	r3, [fp, #-8]
    8054:	e51b3008 	ldr	r3, [fp, #-8]
    8058:	e3530000 	cmp	r3, #0
    805c:	1afffff9 	bne	8048 <wait+0x14>
    8060:	e24bd000 	sub	sp, fp, #0
    8064:	e49db004 	pop	{fp}		; (ldr fp, [sp], #4)
    8068:	e12fff1e 	bx	lr

0000806c <write_to_mailbox>:
    806c:	e52db004 	push	{fp}		; (str fp, [sp, #-4]!)
    8070:	e28db000 	add	fp, sp, #0
    8074:	e24dd014 	sub	sp, sp, #20
    8078:	e50b0010 	str	r0, [fp, #-16]
    807c:	e30b3898 	movw	r3, #47256	; 0xb898
    8080:	e3433f00 	movt	r3, #16128	; 0x3f00
    8084:	e5933000 	ldr	r3, [r3]
    8088:	e50b3008 	str	r3, [fp, #-8]
    808c:	e51b3008 	ldr	r3, [fp, #-8]
    8090:	e3530000 	cmp	r3, #0
    8094:	bafffff8 	blt	807c <write_to_mailbox+0x10>
    8098:	e30b38a0 	movw	r3, #47264	; 0xb8a0
    809c:	e3433f00 	movt	r3, #16128	; 0x3f00
    80a0:	e51b2010 	ldr	r2, [fp, #-16]
    80a4:	e3c2200f 	bic	r2, r2, #15
    80a8:	e3822008 	orr	r2, r2, #8
    80ac:	e5832000 	str	r2, [r3]
    80b0:	e24bd000 	sub	sp, fp, #0
    80b4:	e49db004 	pop	{fp}		; (ldr fp, [sp], #4)
    80b8:	e12fff1e 	bx	lr

000080bc <read_from_mailbox>:
    80bc:	e52db004 	push	{fp}		; (str fp, [sp, #-4]!)
    80c0:	e28db000 	add	fp, sp, #0
    80c4:	e24dd014 	sub	sp, sp, #20
    80c8:	e50b0010 	str	r0, [fp, #-16]
    80cc:	e30b3898 	movw	r3, #47256	; 0xb898
    80d0:	e3433f00 	movt	r3, #16128	; 0x3f00
    80d4:	e5933000 	ldr	r3, [r3]
    80d8:	e50b3008 	str	r3, [fp, #-8]
    80dc:	e51b3008 	ldr	r3, [fp, #-8]
    80e0:	e2033101 	and	r3, r3, #1073741824	; 0x40000000
    80e4:	e3530000 	cmp	r3, #0
    80e8:	1afffff7 	bne	80cc <read_from_mailbox+0x10>
    80ec:	e30b3880 	movw	r3, #47232	; 0xb880
    80f0:	e3433f00 	movt	r3, #16128	; 0x3f00
    80f4:	e5933000 	ldr	r3, [r3]
    80f8:	e203300f 	and	r3, r3, #15
    80fc:	e50b300c 	str	r3, [fp, #-12]
    8100:	e51b200c 	ldr	r2, [fp, #-12]
    8104:	e51b3010 	ldr	r3, [fp, #-16]
    8108:	e1520003 	cmp	r2, r3
    810c:	1afffff6 	bne	80ec <read_from_mailbox+0x30>
    8110:	e51b300c 	ldr	r3, [fp, #-12]
    8114:	e1a00003 	mov	r0, r3
    8118:	e24bd000 	sub	sp, fp, #0
    811c:	e49db004 	pop	{fp}		; (ldr fp, [sp], #4)
    8120:	e12fff1e 	bx	lr

00008124 <set_LED>:
    8124:	e92d4800 	push	{fp, lr}
    8128:	e28db004 	add	fp, sp, #4
    812c:	e24dd008 	sub	sp, sp, #8
    8130:	e50b0008 	str	r0, [fp, #-8]
    8134:	e51b2008 	ldr	r2, [fp, #-8]
    8138:	e30831c0 	movw	r3, #33216	; 0x81c0
    813c:	e3403000 	movt	r3, #0
    8140:	e5832018 	str	r2, [r3, #24]
    8144:	e30831c0 	movw	r3, #33216	; 0x81c0
    8148:	e3403000 	movt	r3, #0
    814c:	e3a02000 	mov	r2, #0
    8150:	e5832004 	str	r2, [r3, #4]
    8154:	e30831c0 	movw	r3, #33216	; 0x81c0
    8158:	e3403000 	movt	r3, #0
    815c:	e3a02000 	mov	r2, #0
    8160:	e5832010 	str	r2, [r3, #16]
    8164:	e30831c0 	movw	r3, #33216	; 0x81c0
    8168:	e3403000 	movt	r3, #0
    816c:	e3a02082 	mov	r2, #130	; 0x82
    8170:	e5832014 	str	r2, [r3, #20]
    8174:	e30831c0 	movw	r3, #33216	; 0x81c0
    8178:	e3403000 	movt	r3, #0
    817c:	e3a02000 	mov	r2, #0
    8180:	e583201c 	str	r2, [r3, #28]
    8184:	e30831c0 	movw	r3, #33216	; 0x81c0
    8188:	e3403000 	movt	r3, #0
    818c:	e1a00003 	mov	r0, r3
    8190:	ebffffb5 	bl	806c <write_to_mailbox>
    8194:	e3a00008 	mov	r0, #8
    8198:	ebffffc7 	bl	80bc <read_from_mailbox>
    819c:	e24bd004 	sub	sp, fp, #4
    81a0:	e8bd8800 	pop	{fp, pc}

Disassembly of section .ARM.exidx:

000081a4 <.ARM.exidx>:
    81a4:	7ffffec8 	svcvc	0x00fffec8
    81a8:	00000001 	andeq	r0, r0, r1

Disassembly of section .data:

000081c0 <led_message>:
    81c0:	00000020 	andeq	r0, r0, r0, lsr #32
    81c4:	00000000 	andeq	r0, r0, r0
    81c8:	00038041 	andeq	r8, r3, r1, asr #32
    81cc:	00000008 	andeq	r0, r0, r8
    81d0:	00000000 	andeq	r0, r0, r0
    81d4:	00000082 	andeq	r0, r0, r2, lsl #1
    81d8:	00000001 	andeq	r0, r0, r1
    81dc:	00000000 	andeq	r0, r0, r0

Disassembly of section .comment:

000081e0 <.comment>:
    81e0:	3a434347 	bcc	10d8f04 <led_message+0x10d0d44>
    81e4:	35312820 	ldrcc	r2, [r1, #-2080]!	; 0xfffff7e0
    81e8:	392e343a 	stmdbcc	lr!, {r1, r3, r4, r5, sl, ip, sp}
    81ec:	732b332e 			; <UNDEFINED> instruction: 0x732b332e
    81f0:	33326e76 	teqcc	r2, #1888	; 0x760
    81f4:	37373131 			; <UNDEFINED> instruction: 0x37373131
    81f8:	2029312d 	eorcs	r3, r9, sp, lsr #2
    81fc:	2e392e34 	mrccs	14, 1, r2, cr9, cr4, {1}
    8200:	30322033 	eorscc	r2, r2, r3, lsr r0
    8204:	35303531 	ldrcc	r3, [r0, #-1329]!	; 0xfffffacf
    8208:	28203932 	stmdacs	r0!, {r1, r4, r5, r8, fp, ip, sp}
    820c:	72657270 	rsbvc	r7, r5, #112, 4
    8210:	61656c65 	cmnvs	r5, r5, ror #24
    8214:	00296573 	eoreq	r6, r9, r3, ror r5

Disassembly of section .ARM.attributes:

000081e0 <.ARM.attributes>:
    81e0:	00003041 	andeq	r3, r0, r1, asr #32
    81e4:	61656100 	cmnvs	r5, r0, lsl #2
    81e8:	01006962 	tsteq	r0, r2, ror #18
    81ec:	00000026 	andeq	r0, r0, r6, lsr #32
    81f0:	412d3805 			; <UNDEFINED> instruction: 0x412d3805
    81f4:	070e0600 	streq	r0, [lr, -r0, lsl #12]
    81f8:	09010841 	stmdbeq	r1, {r0, r6, fp}
    81fc:	14041202 	strne	r1, [r4], #-514	; 0xfffffdfe
    8200:	17011501 	strne	r1, [r1, -r1, lsl #10]
    8204:	1a011803 	bne	4e218 <led_message+0x46058>
    8208:	22061e01 	andcs	r1, r6, #1, 28
    820c:	44012a01 	strmi	r2, [r1], #-2561	; 0xfffff5ff
    8210:	Address 0x0000000000008210 is out of bounds.

