
Discarded input sections

 .bss           0x0000000000000000        0x0 ./objects/boot/interrupts.o
 .comment       0x0000000000000000       0x80 ./objects/boot/interrupts.o
 .data          0x0000000000000000        0x0 ./objects/boot/cstartup.o
 .bss           0x0000000000000000        0x0 ./objects/boot/cstartup.o
 .comment       0x0000000000000000       0x80 ./objects/boot/cstartup.o
 .data          0x0000000000000000        0x0 ./objects/Core/Libraries/stringPiOS.o
 .comment       0x0000000000000000       0x80 ./objects/Core/Libraries/stringPiOS.o
 .bss           0x0000000000000000        0x0 ./objects/Hardware/timePiOS.o
 .comment       0x0000000000000000       0x80 ./objects/Hardware/timePiOS.o
 .text          0x0000000000000000        0x0 ./objects/Fonts/font_info.o
 .data          0x0000000000000000        0x0 ./objects/Fonts/font_info.o
 .comment       0x0000000000000000       0x80 ./objects/Fonts/font_info.o
 .text          0x0000000000000000        0x0 ./objects/Fonts/basic_font.o
 .data          0x0000000000000000        0x0 ./objects/Fonts/basic_font.o
 .bss           0x0000000000000000        0x0 ./objects/Fonts/basic_font.o
 .comment       0x0000000000000000       0x80 ./objects/Fonts/basic_font.o
 .text          0x0000000000000000        0x0 ./objects/boot/boot.o
 .data          0x0000000000000000        0x0 ./objects/boot/boot.o
 .bss           0x0000000000000000        0x0 ./objects/boot/boot.o
 .text          0x0000000000000000       0x8c ./objects/jtag.o
 .data          0x0000000000000000        0x0 ./objects/jtag.o
 .bss           0x0000000000000000        0x0 ./objects/jtag.o
 .ARM.attributes
                0x0000000000000000       0x2c ./objects/jtag.o
 .data          0x0000000000000000        0x0 ./objects/Core/kernel_main.o
 .bss           0x0000000000000000        0x0 ./objects/Core/kernel_main.o
 .comment       0x0000000000000000       0x80 ./objects/Core/kernel_main.o
 .data          0x0000000000000000        0x0 ./objects/Hardware/Memory/memory_management.o
 .comment       0x0000000000000000       0x80 ./objects/Hardware/Memory/memory_management.o
 .data          0x0000000000000000        0x0 ./objects/Hardware/Graphics/mailbox.o
 .comment       0x0000000000000000       0x80 ./objects/Hardware/Graphics/mailbox.o

Memory Configuration

Name             Origin             Length             Attributes
RAM              0x0000000000008000 0x0000000008000000 xrw
*default*        0x0000000000000000 0xffffffffffffffff

Linker script and memory map

LOAD ./objects/boot/interrupts.o
LOAD ./objects/boot/cstartup.o
LOAD ./objects/Core/Libraries/stringPiOS.o
LOAD ./objects/Hardware/timePiOS.o
LOAD ./objects/Fonts/font_info.o
LOAD ./objects/Fonts/basic_font.o
LOAD ./objects/boot/boot.o
LOAD ./objects/jtag.o
LOAD ./objects/Core/kernel_main.o
LOAD ./objects/Hardware/Memory/memory_management.o
LOAD ./objects/Hardware/Graphics/mailbox.o

.text           0x0000000000008000      0xaa0
                0x0000000000008000                . = ALIGN (0x4)
                0x0000000000008000                __text_start__ = .
                0x0000000000008000                _start = .
 *(.text.startup)
 .text.startup  0x0000000000008000       0xe4 ./objects/boot/boot.o
 *(.text .text.* .gnu.linkonce.t.*)
 .text          0x00000000000080e4      0x194 ./objects/boot/interrupts.o
                0x00000000000080e4                enable_select_irq(unsigned char)
                0x0000000000008138                disable_select_irq(unsigned char)
                0x000000000000818c                interrupt_enable_IF()
                0x0000000000008194                interrupt_enable_I()
                0x000000000000819c                interrupt_enable_F()
                0x00000000000081a4                interrupt_disable_IF()
                0x00000000000081b4                interrupt_disable_I()
                0x00000000000081c4                interrupt_disable_F()
                0x00000000000081d4                restore()
                0x00000000000081dc                undefined_instruction_vector
                0x00000000000081f0                software_interrupt_vector
                0x0000000000008204                prefetch_abort_vector
                0x000000000000821c                interrupt_vector
                0x0000000000008260                fast_interrupt_vector
 .text          0x0000000000008278       0x6c ./objects/boot/cstartup.o
                0x0000000000008278                _cstartup
 .text          0x00000000000082e4      0x28c ./objects/Core/Libraries/stringPiOS.o
                0x00000000000082e4                init_print(unsigned long)
                0x0000000000008328                init_char_image(char const*, unsigned long, unsigned long*)
                0x00000000000083a0                drawChar(unsigned long*, unsigned long, unsigned long, unsigned long)
                0x0000000000008414                itos(unsigned long)
                0x0000000000008488                print(char*)
                0x0000000000008550                print(unsigned long)
                0x000000000000856c                print(char const*)
 .text          0x0000000000008570       0xb4 ./objects/Hardware/timePiOS.o
                0x0000000000008570                set_time_irq
                0x000000000000858c                clear_time_irq
                0x00000000000085a4                get_time_cycle
                0x00000000000085b8                wait
 .text.RPi_CheckAndExitHypModeToSvcMode
                0x0000000000008624       0x40 ./objects/boot/boot.o
 .text          0x0000000000008664       0x50 ./objects/Core/kernel_main.o
                0x0000000000008664                kernel_main
 .text          0x00000000000086b4      0x188 ./objects/Hardware/Memory/memory_management.o
                0x00000000000086b4                init_memory_manager
                0x0000000000008704                increment_heap(unsigned long)
                0x000000000000872c                memory_alloc
                0x00000000000087d8                memory_re_alloc
                0x00000000000087f8                memory_calloc
                0x0000000000008830                memory_free
 .text          0x000000000000883c      0x264 ./objects/Hardware/Graphics/mailbox.o
                0x000000000000883c                write_to_mailbox(unsigned long, Channel)
                0x0000000000008860                read_from_mailbox
                0x000000000000888c                set_LED
                0x000000000000891c                blink
                0x0000000000008944                set_init_display_message(Display_info*)
                0x00000000000089fc                init_display
 *(.rel.text .rel.text.* .rel.gnu.linkonce.t.*)
 *(.init .init.*)
                0x0000000000008aa0                . = ALIGN (0x4)
                0x0000000000008aa0                __text_end__ = .

.glue_7         0x0000000000008aa0        0x0
 .glue_7        0x0000000000008aa0        0x0 linker stubs

.glue_7t        0x0000000000008aa0        0x0
 .glue_7t       0x0000000000008aa0        0x0 linker stubs

.vfp11_veneer   0x0000000000008aa0        0x0
 .vfp11_veneer  0x0000000000008aa0        0x0 linker stubs

.v4_bx          0x0000000000008aa0        0x0
 .v4_bx         0x0000000000008aa0        0x0 linker stubs

.iplt           0x0000000000008aa0        0x0
 .iplt          0x0000000000008aa0        0x0 ./objects/boot/interrupts.o

.bss            0x0000000000008aa0       0xa8
                0x0000000000008aa0                . = ALIGN (0x4)
                0x0000000000008aa0                __bss_start__ = .
 *(.bss .bss.* .gnu.linkonce.b.*)
 .bss           0x0000000000008aa0        0xc ./objects/Core/Libraries/stringPiOS.o
                0x0000000000008aa0                tempBuffer
                0x0000000000008aa4                main_cursor
 .bss           0x0000000000008aac        0x8 ./objects/Fonts/font_info.o
                0x0000000000008aac                selected_font
                0x0000000000008ab0                font_size
 .bss           0x0000000000008ab4       0x14 ./objects/Hardware/Memory/memory_management.o
                0x0000000000008ab4                heap_start
                0x0000000000008ab8                heap_end
                0x0000000000008abc                stack_start
                0x0000000000008ac0                stack_end
                0x0000000000008ac4                first_block
 *fill*         0x0000000000008ac8        0x8 
 .bss           0x0000000000008ad0       0x78 ./objects/Hardware/Graphics/mailbox.o
                0x0000000000008ad0                mailbox_message
                0x0000000000008b28                index
                0x0000000000008b2c                main_monitor
 *(.rela.bss .rela.bss.* .rela.gnu.linkonce.b.*)
 *(COMMON)
                0x0000000000008b48                . = ALIGN (0x4)
                0x0000000000008b48                __bss_end__ = .

.rodata         0x0000000000008b48      0x46c
                0x0000000000008b48                . = ALIGN (0x4)
                0x0000000000008b48                __rodata_start__ = .
 *(.rodata .rodata.*)
 .rodata.str1.4
                0x0000000000008b48        0xe ./objects/boot/interrupts.o
 *fill*         0x0000000000008b56        0x2 
 .rodata        0x0000000000008b58      0x400 ./objects/Fonts/basic_font.o
                0x0000000000008b58                basic_font
 .rodata.str1.4
                0x0000000000008f58       0x40 ./objects/Core/kernel_main.o
 .rodata        0x0000000000008f98       0x1c ./objects/Hardware/Graphics/mailbox.o
 *(.rel.rodata .rel.rodata.* .rel.gnu.linkonce.r.*)
                0x0000000000008fb4                . = ALIGN (0x4)
                0x0000000000008fb4                __rodata_end__ = .

.rel.dyn        0x0000000000008fb4        0x0
 .rel.iplt      0x0000000000008fb4        0x0 ./objects/boot/interrupts.o

.data           0x0000000000008fb4        0x8
                0x0000000000008fb4                . = ALIGN (0x4)
                0x0000000000008fb4                __data_start__ = .
 *(.data .data.* .gnu.linkonce.d.*)
 .data          0x0000000000008fb4        0x4 ./objects/boot/interrupts.o
                0x0000000000008fb4                irq_controller
 .data          0x0000000000008fb8        0x4 ./objects/Hardware/timePiOS.o
                0x0000000000008fb8                system_timer
 *(.rel.data .rel.data.* .rel.gnu.linkonce.d.*)
                0x0000000000008fbc                . = ALIGN (0x4)
                0x0000000000008fbc                __data_end__ = .

.igot.plt       0x0000000000008fbc        0x0
 .igot.plt      0x0000000000008fbc        0x0 ./objects/boot/interrupts.o

.data1          0x0000000000008fbc        0x4
                0x0000000000008fc0                . = ALIGN (0x10)
 *fill*         0x0000000000008fbc        0x4 
                0x0000000000008fc0                __data1_start__ = .
 *(.data1 .data1.*)
 *(.rel.data1 .rel.data1.*)
                0x0000000000008fc0                . = ALIGN (0x10)
                0x0000000000008fc0                __data1_end__ = .

.stack          0x0000000000008fc0     0x9800
                0x0000000000008fc0                . = ALIGN (0x8)
                0x0000000000008fc0                __stack_start__ = .
                0x00000000000091c0                . = (. + 0x200)
 *fill*         0x0000000000008fc0      0x200 
                0x00000000000091c0                __fiq_stack = .
                0x000000000000d1c0                . = (. + 0x4000)
 *fill*         0x00000000000091c0     0x4000 
                0x000000000000d1c0                __usrsys_stack = .
                0x00000000000111c0                . = (. + 0x4000)
 *fill*         0x000000000000d1c0     0x4000 
                0x00000000000111c0                __svc_stack = .
                0x00000000000121c0                . = (. + 0x1000)
 *fill*         0x00000000000111c0     0x1000 
                0x00000000000121c0                __irq_stack = .
                0x00000000000123c0                . = (. + 0x200)
 *fill*         0x00000000000121c0      0x200 
                0x00000000000123c0                __mon_stack = .
                0x00000000000125c0                . = (. + 0x200)
 *fill*         0x00000000000123c0      0x200 
                0x00000000000125c0                __hyp_stack = .
                0x00000000000127c0                . = (. + 0x200)
 *fill*         0x00000000000125c0      0x200 
                0x00000000000127c0                __und_stack = .
                0x00000000000127c0                . = ALIGN (0x8)
                0x00000000000127c0                __stack_end__ = .

.ARM.attributes
                0x0000000000000000       0x3e
 *(.ARM.attributes)
 .ARM.attributes
                0x0000000000000000       0x40 ./objects/boot/interrupts.o
 .ARM.attributes
                0x0000000000000040       0x40 ./objects/boot/cstartup.o
 .ARM.attributes
                0x0000000000000080       0x40 ./objects/Core/Libraries/stringPiOS.o
 .ARM.attributes
                0x00000000000000c0       0x40 ./objects/Hardware/timePiOS.o
 .ARM.attributes
                0x0000000000000100       0x40 ./objects/Fonts/font_info.o
 .ARM.attributes
                0x0000000000000140       0x40 ./objects/Fonts/basic_font.o
 .ARM.attributes
                0x0000000000000180       0x2c ./objects/boot/boot.o
 .ARM.attributes
                0x00000000000001ac       0x40 ./objects/Core/kernel_main.o
 .ARM.attributes
                0x00000000000001ec       0x40 ./objects/Hardware/Memory/memory_management.o
 .ARM.attributes
                0x000000000000022c       0x40 ./objects/Hardware/Graphics/mailbox.o

.Heap           0x00000000000127c0        0x0
                0x00000000000127c0                . = ALIGN (0x4)
                0x00000000000127c0                Kernel_End = .
                [!provide]                        PROVIDE (end, .)

/DISCARD/
 *(.ARM.exidx .ARM.exidx.*)
 *(.rel.ARM.exidx .rel.ARM.exidx.* .gnu.linkonce.armexidx.*)
 *(.debug_frame .debug_frame.*)
 *(.comment *.comment.*)
 *(.symtab .symtab.*)
 *(.strtab .strtab.*)
 *(.shstrtab .shstrtab.*)
 *(.note.GNU-stack)
 *(.gnu_debuglink)
 *(.gnu.lto_*)
OUTPUT(build/kernel.elf elf32-littlearm)
