
Discarded input sections

 .data          0x0000000000000000        0x0 ./objects/boot/cstartup.o
 .data          0x0000000000000000        0x0 ./objects/Core/Libraries/stringPiOS.o
 .text          0x0000000000000000        0x0 ./objects/Fonts/font_info.o
 .data          0x0000000000000000        0x0 ./objects/Fonts/font_info.o
 .text          0x0000000000000000        0x0 ./objects/Fonts/basic_font.o
 .data          0x0000000000000000        0x0 ./objects/Fonts/basic_font.o
 .text          0x0000000000000000        0x0 ./objects/boot/boot.o
 .data          0x0000000000000000        0x0 ./objects/boot/boot.o
 .text.RPi_CheckAndExitHypModeToSvcMode
                0x0000000000000000       0x40 ./objects/boot/boot.o
 .text          0x0000000000000000       0x8c ./objects/jtag.o
 .data          0x0000000000000000        0x0 ./objects/jtag.o
 .data          0x0000000000000000        0x0 ./objects/Core/kernel_main.o
 .data          0x0000000000000000        0x0 ./objects/Hardware/Memory/memory_management.o
 .data          0x0000000000000000        0x0 ./objects/Hardware/Graphics/mailbox.o

Memory Configuration

Name             Origin             Length             Attributes
*default*        0x0000000000000000 0xffffffffffffffff

Linker script and memory map

LOAD ./objects/boot/interrupts.o
LOAD ./objects/boot/cstartup.o
LOAD ./objects/Core/Libraries/stringPiOS.o
LOAD ./objects/Hardware/timePiOS.o
LOAD ./objects/Fonts/font_info.o
LOAD ./objects/Fonts/basic_font.o
LOAD ./objects/boot/boot.o
LOAD ./objects/jtag.o
LOAD ./objects/Core/kernel_main.o
LOAD ./objects/Hardware/Memory/memory_management.o
LOAD ./objects/Hardware/Graphics/mailbox.o

.init           0x0000000000008000       0xc8
 *(.init)
 .init          0x0000000000008000       0xc8 ./objects/boot/boot.o
                0x0000000000008000                _start

.text           0x00000000000080c8      0x97c
                0x00000000000080c8                . = ALIGN (0x4)
                0x00000000000080c8                __text_start__ = .
 *(.text .text.* .gnu.linkonce.t.*)
 .text          0x00000000000080c8      0x194 ./objects/boot/interrupts.o
                0x00000000000080c8                enable_select_irq(unsigned char)
                0x000000000000811c                disable_select_irq(unsigned char)
                0x0000000000008170                interrupt_enable_IF()
                0x0000000000008178                interrupt_enable_I()
                0x0000000000008180                interrupt_enable_F()
                0x0000000000008188                interrupt_disable_IF()
                0x0000000000008198                interrupt_disable_I()
                0x00000000000081a8                interrupt_disable_F()
                0x00000000000081b8                restore()
                0x00000000000081c0                undefined_instruction_vector
                0x00000000000081d4                software_interrupt_vector
                0x00000000000081e8                prefetch_abort_vector
                0x0000000000008200                interrupt_vector
                0x0000000000008244                fast_interrupt_vector
 .text          0x000000000000825c       0x6c ./objects/boot/cstartup.o
                0x000000000000825c                _cstartup
 .text          0x00000000000082c8      0x28c ./objects/Core/Libraries/stringPiOS.o
                0x00000000000082c8                init_print(unsigned long)
                0x000000000000830c                init_char_image(char const*, unsigned long, unsigned long*)
                0x0000000000008384                drawChar(unsigned long*, unsigned long, unsigned long, unsigned long)
                0x00000000000083f8                itos(unsigned long)
                0x000000000000846c                print(char*)
                0x0000000000008534                print(unsigned long)
                0x0000000000008550                print(char const*)
 .text          0x0000000000008554       0xb4 ./objects/Hardware/timePiOS.o
                0x0000000000008554                set_time_irq
                0x0000000000008570                clear_time_irq
                0x0000000000008588                get_time_cycle
                0x000000000000859c                wait
 .text          0x0000000000008608       0x50 ./objects/Core/kernel_main.o
                0x0000000000008608                kernel_main
 .text          0x0000000000008658      0x188 ./objects/Hardware/Memory/memory_management.o
                0x0000000000008658                init_memory_manager
                0x00000000000086a8                increment_heap(unsigned long)
                0x00000000000086d0                memory_alloc
                0x000000000000877c                memory_re_alloc
                0x000000000000879c                memory_calloc
                0x00000000000087d4                memory_free
 .text          0x00000000000087e0      0x264 ./objects/Hardware/Graphics/mailbox.o
                0x00000000000087e0                write_to_mailbox(unsigned long, Channel)
                0x0000000000008804                read_from_mailbox
                0x0000000000008830                set_LED
                0x00000000000088c0                blink
                0x00000000000088e8                set_init_display_message(Display_info*)
                0x00000000000089a0                init_display
                0x0000000000008a44                . = ALIGN (0x4)
                0x0000000000008a44                __text_end__ = .

.rodata.str1.4  0x0000000000008a44       0x50
 .rodata.str1.4
                0x0000000000008a44        0xe ./objects/boot/interrupts.o
 *fill*         0x0000000000008a52        0x2 
 .rodata.str1.4
                0x0000000000008a54       0x40 ./objects/Core/kernel_main.o

.rodata         0x0000000000008a94      0x41c
 .rodata        0x0000000000008a94      0x400 ./objects/Fonts/basic_font.o
                0x0000000000008a94                basic_font
 .rodata        0x0000000000008e94       0x1c ./objects/Hardware/Graphics/mailbox.o

.glue_7         0x0000000000008eb0        0x0
 .glue_7        0x0000000000008eb0        0x0 linker stubs

.glue_7t        0x0000000000008eb0        0x0
 .glue_7t       0x0000000000008eb0        0x0 linker stubs

.vfp11_veneer   0x0000000000008eb0        0x0
 .vfp11_veneer  0x0000000000008eb0        0x0 linker stubs

.v4_bx          0x0000000000008eb0        0x0
 .v4_bx         0x0000000000008eb0        0x0 linker stubs

.iplt           0x0000000000008eb0        0x0
 .iplt          0x0000000000008eb0        0x0 ./objects/boot/interrupts.o

.rel.dyn        0x0000000000008eb0        0x0
 .rel.iplt      0x0000000000008eb0        0x0 ./objects/boot/interrupts.o

.data           0x0000000000008eb0        0x8
                0x0000000000008eb0                . = ALIGN (0x4)
                0x0000000000008eb0                __data_start__ = .
 *(.data .data.* .gnu.linkonce.d.*)
 .data          0x0000000000008eb0        0x4 ./objects/boot/interrupts.o
                0x0000000000008eb0                irq_controller
 .data          0x0000000000008eb4        0x4 ./objects/Hardware/timePiOS.o
                0x0000000000008eb4                system_timer
                0x0000000000008eb8                . = ALIGN (0x4)
                0x0000000000008eb8                __data_end__ = .

.igot.plt       0x0000000000008eb8        0x0
 .igot.plt      0x0000000000008eb8        0x0 ./objects/boot/interrupts.o

.bss            0x0000000000008ec0       0xa8
                0x0000000000008ec0                . = ALIGN (0x4)
                0x0000000000008ec0                __bss_start__ = .
 *(.bss)
 .bss           0x0000000000008ec0        0x0 ./objects/boot/interrupts.o
 .bss           0x0000000000008ec0        0x0 ./objects/boot/cstartup.o
 .bss           0x0000000000008ec0        0xc ./objects/Core/Libraries/stringPiOS.o
                0x0000000000008ec0                tempBuffer
                0x0000000000008ec4                main_cursor
 .bss           0x0000000000008ecc        0x0 ./objects/Hardware/timePiOS.o
 .bss           0x0000000000008ecc        0x8 ./objects/Fonts/font_info.o
                0x0000000000008ecc                selected_font
                0x0000000000008ed0                font_size
 .bss           0x0000000000008ed4        0x0 ./objects/Fonts/basic_font.o
 .bss           0x0000000000008ed4        0x0 ./objects/boot/boot.o
 .bss           0x0000000000008ed4        0x0 ./objects/jtag.o
 .bss           0x0000000000008ed4        0x0 ./objects/Core/kernel_main.o
 .bss           0x0000000000008ed4       0x14 ./objects/Hardware/Memory/memory_management.o
                0x0000000000008ed4                heap_start
                0x0000000000008ed8                heap_end
                0x0000000000008edc                stack_start
                0x0000000000008ee0                stack_end
                0x0000000000008ee4                first_block
 *fill*         0x0000000000008ee8        0x8 
 .bss           0x0000000000008ef0       0x78 ./objects/Hardware/Graphics/mailbox.o
                0x0000000000008ef0                mailbox_message
                0x0000000000008f48                index
                0x0000000000008f4c                main_monitor
                0x0000000000008f68                . = ALIGN (0x4)
                0x0000000000008f68                __bss_end__ = .

.stack          0x0000000000008f68     0x9800
                0x0000000000008f68                . = ALIGN (0x8)
                0x0000000000008f68                __stack_start__ = .
                0x0000000000009168                . = (. + 0x200)
 *fill*         0x0000000000008f68      0x200 
                0x0000000000009168                __fiq_stack = .
                0x000000000000d168                . = (. + 0x4000)
 *fill*         0x0000000000009168     0x4000 
                0x000000000000d168                __usrsys_stack = .
                0x0000000000011168                . = (. + 0x4000)
 *fill*         0x000000000000d168     0x4000 
                0x0000000000011168                __svc_stack = .
                0x0000000000012168                . = (. + 0x1000)
 *fill*         0x0000000000011168     0x1000 
                0x0000000000012168                __irq_stack = .
                0x0000000000012368                . = (. + 0x200)
 *fill*         0x0000000000012168      0x200 
                0x0000000000012368                __mon_stack = .
                0x0000000000012568                . = (. + 0x200)
 *fill*         0x0000000000012368      0x200 
                0x0000000000012568                __hyp_stack = .
                0x0000000000012768                . = (. + 0x200)
 *fill*         0x0000000000012568      0x200 
                0x0000000000012768                __und_stack = .
                0x0000000000012768                . = ALIGN (0x8)
                0x0000000000012768                __stack_end__ = .

.Heap           0x0000000000012768        0x0
                0x0000000000012768                . = ALIGN (0x4)
                0x0000000000012768                Kernel_End = .
OUTPUT(build/kernel.elf elf32-littlearm)

.comment        0x0000000000000000       0x7f
 .comment       0x0000000000000000       0x7f ./objects/boot/interrupts.o
                                         0x80 (size before relaxing)
 .comment       0x000000000000007f       0x80 ./objects/boot/cstartup.o
 .comment       0x000000000000007f       0x80 ./objects/Core/Libraries/stringPiOS.o
 .comment       0x000000000000007f       0x80 ./objects/Hardware/timePiOS.o
 .comment       0x000000000000007f       0x80 ./objects/Fonts/font_info.o
 .comment       0x000000000000007f       0x80 ./objects/Fonts/basic_font.o
 .comment       0x000000000000007f       0x80 ./objects/Core/kernel_main.o
 .comment       0x000000000000007f       0x80 ./objects/Hardware/Memory/memory_management.o
 .comment       0x000000000000007f       0x80 ./objects/Hardware/Graphics/mailbox.o

.ARM.attributes
                0x0000000000000000       0x3e
 .ARM.attributes
                0x0000000000000000       0x40 ./objects/boot/interrupts.o
 .ARM.attributes
                0x0000000000000040       0x40 ./objects/boot/cstartup.o
 .ARM.attributes
                0x0000000000000080       0x40 ./objects/Core/Libraries/stringPiOS.o
 .ARM.attributes
                0x00000000000000c0       0x40 ./objects/Hardware/timePiOS.o
 .ARM.attributes
                0x0000000000000100       0x40 ./objects/Fonts/font_info.o
 .ARM.attributes
                0x0000000000000140       0x40 ./objects/Fonts/basic_font.o
 .ARM.attributes
                0x0000000000000180       0x2c ./objects/boot/boot.o
 .ARM.attributes
                0x00000000000001ac       0x2c ./objects/jtag.o
 .ARM.attributes
                0x00000000000001d8       0x40 ./objects/Core/kernel_main.o
 .ARM.attributes
                0x0000000000000218       0x40 ./objects/Hardware/Memory/memory_management.o
 .ARM.attributes
                0x0000000000000258       0x40 ./objects/Hardware/Graphics/mailbox.o
